(dp1
S'clim'
p2
(dp3
S'current'
p4
(dp5
S'bio07'
p6
(dp7
S'created_at'
p8
S'2015-03-24 21:18:33'
p9
sS'Correlated'
p10
S'no'
p11
sS'envLayerType'
p12
S'current.bio07'
p13
sS'Name'
p14
I58
sS'typeCode'
p15
S'bio07'
p16
sS'typeCodeDescription'
p17
S'Temperature Annual Range (BIO5-BIO6)'
p18
sS'RCP'
p19
S'current'
p20
sS'bioclim'
p21
S'current'
p22
sS'filePath'
p23
S'../views/GTiff/clim.current.bio07.tif'
p24
sS'filterType'
p25
S'climate'
p26
sS'fullname'
p27
S'clim.current.bio07'
p28
sS'lyrID'
p29
S'6271'
p30
sS'layerDescription'
p31
S'Temperature Annual Range (BIO5-BIO6) Current Climate 1960-2000'
p32
sS'dataFormat'
p33
S'GTiff'
p34
sS'units'
p35
S'dd'
p36
sS'title'
p37
S'clim.current.bio07.tif'
p38
sS'model'
p39
S'clim'
p40
sS'resolution'
p41
S'30'
p42
sS'epsgCode'
p43
I4326
sS'projectionDate'
p44
S'current'
p45
ssS'bio12'
p46
(dp47
g8
S'2015-03-24 21:18:33'
p48
sg10
S'no'
p49
sg12
S'current.bio12'
p50
sg14
I77
sg15
S'bio12'
p51
sg17
S'Annual Precipitation'
p52
sg19
S'current'
p53
sg21
S'current'
p54
sg23
S'../views/GTiff/clim.current.bio12.tif'
p55
sg25
S'climate'
p56
sg27
S'clim.current.bio12'
p57
sg29
S'6270'
p58
sg31
S'Annual Precipitation Current Climate 1960-2000'
p59
sg33
g34
sg35
g36
sg37
S'clim.current.bio12.tif'
p60
sg39
S'clim'
p61
sg41
g42
sg43
I4326
sg44
S'current'
p62
ssS'bio15'
p63
(dp64
g8
S'2015-03-24 21:18:33'
p65
sg10
S'no'
p66
sg12
S'current.bio15'
p67
sg14
I34
sg15
S'bio15'
p68
sg17
S'Precipitation Seasonality (Coefficient of Variation)'
p69
sg19
S'current'
p70
sg21
S'current'
p71
sg23
S'../views/GTiff/clim.current.bio15.tif'
p72
sg25
S'climate'
p73
sg27
S'clim.current.bio15'
p74
sg29
S'6269'
p75
sg31
S'Precipitation Seasonality (Coefficient of Variation) Current Climate 1960-2000'
p76
sg33
g34
sg35
g36
sg37
S'clim.current.bio15.tif'
p77
sg39
S'clim'
p78
sg41
g42
sg43
I4326
sg44
S'current'
p79
ssS'bio01'
p80
(dp81
g8
S'2015-03-24 21:18:33'
p82
sg10
S'no'
p83
sg12
S'current.bio01'
p84
sg14
I44
sg15
S'bio01'
p85
sg17
S'Annual Mean Temperature'
p86
sg19
S'current'
p87
sg21
S'current'
p88
sg23
S'../views/GTiff/clim.current.bio01.tif'
p89
sg25
S'climate'
p90
sg27
S'clim.current.bio01'
p91
sg29
S'6277'
p92
sg31
S'Annual Mean Temperature Current Climate 1960-2000'
p93
sg33
g34
sg35
g36
sg37
S'clim.current.bio01.tif'
p94
sg39
S'clim'
p95
sg41
g42
sg43
I4326
sg44
S'current'
p96
ssS'bio18'
p97
(dp98
g8
S'2015-03-24 21:18:33'
p99
sg10
S'no'
p100
sg12
S'current.bio18'
p101
sg14
I59
sg15
S'bio18'
p102
sg17
S'Precipitation of Warmest Quarter'
p103
sg19
S'current'
p104
sg21
S'current'
p105
sg23
S'../views/GTiff/clim.current.bio18.tif'
p106
sg25
S'climate'
p107
sg27
S'clim.current.bio18'
p108
sg29
S'6279'
p109
sg31
S'Precipitation of Warmest Quarter Current Climate 1960-2000'
p110
sg33
g34
sg35
g36
sg37
S'clim.current.bio18.tif'
p111
sg39
S'clim'
p112
sg41
g42
sg43
I4326
sg44
S'current'
p113
ssS'bio08'
p114
(dp115
g8
S'2015-03-24 21:18:33'
p116
sg10
S'no'
p117
sg12
S'current.bio08'
p118
sg14
I11
sg15
S'bio08'
p119
sg17
S'Mean Temperature of Wettest Quarter'
p120
sg19
S'current'
p121
sg21
g4
sg23
S'../views/GTiff/clim.current.bio08.tif'
p122
sg25
S'climate'
p123
sg27
S'clim.current.bio08'
p124
sg29
S'6282'
p125
sg31
S'Mean Temperature of Wettest Quarter Current Climate 1960-2000'
p126
sg33
g34
sg35
g36
sg37
S'clim.current.bio08.tif'
p127
sg39
S'clim'
p128
sg41
g42
sg43
I4326
sg44
S'current'
p129
sssS'ggs4550'
p130
(dp131
S'bio07'
p132
(dp133
g8
S'2015-03-24 21:18:33'
p134
sg10
S'no'
p135
sg12
S'ggs4550.bio07'
p136
sg14
I70
sg15
S'bio07'
p137
sg17
S'Temperature Annual Range (BIO5-BIO6)'
p138
sg19
S'45'
p139
sg21
S'ggs4550'
p140
sg23
S'../views/GTiff/clim.ggs4550.bio07.tif'
p141
sg25
S'climate'
p142
sg27
S'clim.ggs4550.bio07'
p143
sg29
S'6586'
p144
sg31
S'Temperature Annual Range (BIO5-BIO6) GS RCP45 2050'
p145
sg33
g34
sg35
g36
sg37
S'clim.ggs4550.bio07.tif'
p146
sg39
S'clim'
p147
sg41
g42
sg43
I4326
sg44
S'2050'
p148
ssS'bio12'
p149
(dp150
g8
S'2015-03-24 21:18:33'
p151
sg10
S'no'
p152
sg12
S'ggs4550.bio12'
p153
sg14
I31
sg15
S'bio12'
p154
sg17
S'Annual Precipitation'
p155
sg19
S'45'
p156
sg21
S'ggs4550'
p157
sg23
S'../views/GTiff/clim.ggs4550.bio12.tif'
p158
sg25
S'climate'
p159
sg27
S'clim.ggs4550.bio12'
p160
sg29
S'6585'
p161
sg31
S'Annual Precipitation GS RCP45 2050'
p162
sg33
g34
sg35
g36
sg37
S'clim.ggs4550.bio12.tif'
p163
sg39
S'clim'
p164
sg41
g42
sg43
I4326
sg44
S'2050'
p165
ssS'bio15'
p166
(dp167
g8
S'2015-03-24 21:18:33'
p168
sg10
S'no'
p169
sg12
S'ggs4550.bio15'
p170
sg14
I69
sg15
S'bio15'
p171
sg17
S'Precipitation Seasonality (Coefficient of Variation)'
p172
sg19
S'45'
p173
sg21
S'ggs4550'
p174
sg23
S'../views/GTiff/clim.ggs4550.bio15.tif'
p175
sg25
S'climate'
p176
sg27
S'clim.ggs4550.bio15'
p177
sg29
S'6584'
p178
sg31
S'Precipitation Seasonality (Coefficient of Variation) GS RCP45 2050'
p179
sg33
g34
sg35
g36
sg37
S'clim.ggs4550.bio15.tif'
p180
sg39
S'clim'
p181
sg41
g42
sg43
I4326
sg44
S'2050'
p182
ssS'bio01'
p183
(dp184
g8
S'2015-03-24 21:18:33'
p185
sg10
S'no'
p186
sg12
S'ggs4550.bio01'
p187
sg14
I61
sg15
S'bio01'
p188
sg17
S'Annual Mean Temperature'
p189
sg19
S'45'
p190
sg21
S'ggs4550'
p191
sg23
S'../views/GTiff/clim.ggs4550.bio01.tif'
p192
sg25
S'climate'
p193
sg27
S'clim.ggs4550.bio01'
p194
sg29
S'6592'
p195
sg31
S'Annual Mean Temperature GS RCP45 2050'
p196
sg33
g34
sg35
g36
sg37
S'clim.ggs4550.bio01.tif'
p197
sg39
S'clim'
p198
sg41
g42
sg43
I4326
sg44
S'2050'
p199
ssS'bio18'
p200
(dp201
g8
S'2015-03-24 21:18:33'
p202
sg10
S'no'
p203
sg12
S'ggs4550.bio18'
p204
sg14
I14
sg15
S'bio18'
p205
sg17
S'Precipitation of Warmest Quarter'
p206
sg19
S'45'
p207
sg21
g130
sg23
S'../views/GTiff/clim.ggs4550.bio18.tif'
p208
sg25
S'climate'
p209
sg27
S'clim.ggs4550.bio18'
p210
sg29
S'6594'
p211
sg31
S'Precipitation of Warmest Quarter GS RCP45 2050'
p212
sg33
g34
sg35
g36
sg37
S'clim.ggs4550.bio18.tif'
p213
sg39
S'clim'
p214
sg41
g42
sg43
I4326
sg44
S'2050'
p215
ssS'bio08'
p216
(dp217
g8
S'2015-03-24 21:18:33'
p218
sg10
S'no'
p219
sg12
S'ggs4550.bio08'
p220
sg14
I48
sg15
S'bio08'
p221
sg17
S'Mean Temperature of Wettest Quarter'
p222
sg19
S'45'
p223
sg21
S'ggs4550'
p224
sg23
S'../views/GTiff/clim.ggs4550.bio08.tif'
p225
sg25
S'climate'
p226
sg27
S'clim.ggs4550.bio08'
p227
sg29
S'6597'
p228
sg31
S'Mean Temperature of Wettest Quarter GS RCP45 2050'
p229
sg33
g34
sg35
g36
sg37
S'clim.ggs4550.bio08.tif'
p230
sg39
S'clim'
p231
sg41
g42
sg43
I4326
sg44
S'2050'
p232
sssS'hhe4550'
p233
(dp234
S'bio07'
p235
(dp236
g8
S'2015-03-24 21:18:33'
p237
sg10
S'no'
p238
sg12
S'hhe4550.bio07'
p239
sg14
I41
sg15
S'bio07'
p240
sg17
S'Temperature Annual Range (BIO5-BIO6)'
p241
sg19
S'45'
p242
sg21
S'hhe4550'
p243
sg23
S'../views/GTiff/clim.hhe4550.bio07.tif'
p244
sg25
S'climate'
p245
sg27
S'clim.hhe4550.bio07'
p246
sg29
S'6567'
p247
sg31
S'Temperature Annual Range (BIO5-BIO6) HE RCP45 2050'
p248
sg33
g34
sg35
g36
sg37
S'clim.hhe4550.bio07.tif'
p249
sg39
S'clim'
p250
sg41
g42
sg43
I4326
sg44
S'2050'
p251
ssS'bio12'
p252
(dp253
g8
S'2015-03-24 21:18:33'
p254
sg10
S'no'
p255
sg12
S'hhe4550.bio12'
p256
sg14
I18
sg15
S'bio12'
p257
sg17
S'Annual Precipitation'
p258
sg19
S'45'
p259
sg21
S'hhe4550'
p260
sg23
S'../views/GTiff/clim.hhe4550.bio12.tif'
p261
sg25
S'climate'
p262
sg27
S'clim.hhe4550.bio12'
p263
sg29
S'6566'
p264
sg31
S'Annual Precipitation HE RCP45 2050'
p265
sg33
g34
sg35
g36
sg37
S'clim.hhe4550.bio12.tif'
p266
sg39
S'clim'
p267
sg41
g42
sg43
I4326
sg44
S'2050'
p268
ssS'bio15'
p269
(dp270
g8
S'2015-03-24 21:18:33'
p271
sg10
S'no'
p272
sg12
S'hhe4550.bio15'
p273
sg14
I4
sg15
S'bio15'
p274
sg17
S'Precipitation Seasonality (Coefficient of Variation)'
p275
sg19
S'45'
p276
sg21
g233
sg23
S'../views/GTiff/clim.hhe4550.bio15.tif'
p277
sg25
S'climate'
p278
sg27
S'clim.hhe4550.bio15'
p279
sg29
S'6565'
p280
sg31
S'Precipitation Seasonality (Coefficient of Variation) HE RCP45 2050'
p281
sg33
g34
sg35
g36
sg37
S'clim.hhe4550.bio15.tif'
p282
sg39
g2
sg41
g42
sg43
I4326
sg44
S'2050'
p283
ssS'bio01'
p284
(dp285
g8
S'2015-03-24 21:18:33'
p286
sg10
S'no'
p287
sg12
S'hhe4550.bio01'
p288
sg14
I73
sg15
S'bio01'
p289
sg17
S'Annual Mean Temperature'
p290
sg19
S'45'
p291
sg21
S'hhe4550'
p292
sg23
S'../views/GTiff/clim.hhe4550.bio01.tif'
p293
sg25
S'climate'
p294
sg27
S'clim.hhe4550.bio01'
p295
sg29
S'6573'
p296
sg31
S'Annual Mean Temperature HE RCP45 2050'
p297
sg33
g34
sg35
g36
sg37
S'clim.hhe4550.bio01.tif'
p298
sg39
S'clim'
p299
sg41
g42
sg43
I4326
sg44
S'2050'
p300
ssS'bio18'
p301
(dp302
g8
S'2015-03-24 21:18:33'
p303
sg10
S'no'
p304
sg12
S'hhe4550.bio18'
p305
sg14
I79
sg15
S'bio18'
p306
sg17
S'Precipitation of Warmest Quarter'
p307
sg19
S'45'
p308
sg21
S'hhe4550'
p309
sg23
S'../views/GTiff/clim.hhe4550.bio18.tif'
p310
sg25
S'climate'
p311
sg27
S'clim.hhe4550.bio18'
p312
sg29
S'6575'
p313
sg31
S'Precipitation of Warmest Quarter HE RCP45 2050'
p314
sg33
g34
sg35
g36
sg37
S'clim.hhe4550.bio18.tif'
p315
sg39
S'clim'
p316
sg41
g42
sg43
I4326
sg44
S'2050'
p317
ssS'bio08'
p318
(dp319
g8
S'2015-03-24 21:18:33'
p320
sg10
S'no'
p321
sg12
S'hhe4550.bio08'
p322
sg14
I22
sg15
S'bio08'
p323
sg17
S'Mean Temperature of Wettest Quarter'
p324
sg19
S'45'
p325
sg21
S'hhe4550'
p326
sg23
S'../views/GTiff/clim.hhe4550.bio08.tif'
p327
sg25
S'climate'
p328
sg27
S'clim.hhe4550.bio08'
p329
sg29
S'6578'
p330
sg31
S'Mean Temperature of Wettest Quarter HE RCP45 2050'
p331
sg33
g34
sg35
g36
sg37
S'clim.hhe4550.bio08.tif'
p332
sg39
S'clim'
p333
sg41
g42
sg43
I4326
sg44
S'2050'
p334
sssS'hhe4570'
p335
(dp336
S'bio07'
p337
(dp338
g8
S'2015-03-24 21:18:33'
p339
sg10
S'no'
p340
sg12
S'hhe4570.bio07'
p341
sg14
I21
sg15
S'bio07'
p342
sg17
S'Temperature Annual Range (BIO5-BIO6)'
p343
sg19
S'45'
p344
sg21
S'hhe4570'
p345
sg23
S'../views/GTiff/clim.hhe4570.bio07.tif'
p346
sg25
S'climate'
p347
sg27
S'clim.hhe4570.bio07'
p348
sg29
S'6605'
p349
sg31
S'Temperature Annual Range (BIO5-BIO6) HE RCP45 2070'
p350
sg33
g34
sg35
g36
sg37
S'clim.hhe4570.bio07.tif'
p351
sg39
S'clim'
p352
sg41
g42
sg43
I4326
sg44
S'2070'
p353
ssS'bio12'
p354
(dp355
g8
S'2015-03-24 21:18:33'
p356
sg10
S'no'
p357
sg12
S'hhe4570.bio12'
p358
sg14
I25
sg15
S'bio12'
p359
sg17
S'Annual Precipitation'
p360
sg19
S'45'
p361
sg21
S'hhe4570'
p362
sg23
S'../views/GTiff/clim.hhe4570.bio12.tif'
p363
sg25
S'climate'
p364
sg27
S'clim.hhe4570.bio12'
p365
sg29
S'6604'
p366
sg31
S'Annual Precipitation HE RCP45 2070'
p367
sg33
g34
sg35
g36
sg37
S'clim.hhe4570.bio12.tif'
p368
sg39
S'clim'
p369
sg41
g42
sg43
I4326
sg44
S'2070'
p370
ssS'bio15'
p371
(dp372
g8
S'2015-03-24 21:18:33'
p373
sg10
S'no'
p374
sg12
S'hhe4570.bio15'
p375
sg14
I62
sg15
S'bio15'
p376
sg17
S'Precipitation Seasonality (Coefficient of Variation)'
p377
sg19
S'45'
p378
sg21
S'hhe4570'
p379
sg23
S'../views/GTiff/clim.hhe4570.bio15.tif'
p380
sg25
S'climate'
p381
sg27
S'clim.hhe4570.bio15'
p382
sg29
S'6603'
p383
sg31
S'Precipitation Seasonality (Coefficient of Variation) HE RCP45 2070'
p384
sg33
g34
sg35
g36
sg37
S'clim.hhe4570.bio15.tif'
p385
sg39
S'clim'
p386
sg41
g42
sg43
I4326
sg44
S'2070'
p387
ssS'bio01'
p388
(dp389
g8
S'2015-03-24 21:18:33'
p390
sg10
S'no'
p391
sg12
S'hhe4570.bio01'
p392
sg14
I38
sg15
S'bio01'
p393
sg17
S'Annual Mean Temperature'
p394
sg19
S'45'
p395
sg21
S'hhe4570'
p396
sg23
S'../views/GTiff/clim.hhe4570.bio01.tif'
p397
sg25
S'climate'
p398
sg27
S'clim.hhe4570.bio01'
p399
sg29
S'6611'
p400
sg31
S'Annual Mean Temperature HE RCP45 2070'
p401
sg33
g34
sg35
g36
sg37
S'clim.hhe4570.bio01.tif'
p402
sg39
S'clim'
p403
sg41
g42
sg43
I4326
sg44
S'2070'
p404
ssS'bio18'
p405
(dp406
g8
S'2015-03-24 21:18:33'
p407
sg10
S'no'
p408
sg12
S'hhe4570.bio18'
p409
sg14
I68
sg15
S'bio18'
p410
sg17
S'Precipitation of Warmest Quarter'
p411
sg19
S'45'
p412
sg21
S'hhe4570'
p413
sg23
S'../views/GTiff/clim.hhe4570.bio18.tif'
p414
sg25
S'climate'
p415
sg27
S'clim.hhe4570.bio18'
p416
sg29
S'6613'
p417
sg31
S'Precipitation of Warmest Quarter HE RCP45 2070'
p418
sg33
g34
sg35
g36
sg37
S'clim.hhe4570.bio18.tif'
p419
sg39
S'clim'
p420
sg41
g42
sg43
I4326
sg44
S'2070'
p421
ssS'bio08'
p422
(dp423
g8
S'2015-03-24 21:18:33'
p424
sg10
S'no'
p425
sg12
S'hhe4570.bio08'
p426
sg14
I13
sg15
S'bio08'
p427
sg17
S'Mean Temperature of Wettest Quarter'
p428
sg19
S'45'
p429
sg21
g335
sg23
S'../views/GTiff/clim.hhe4570.bio08.tif'
p430
sg25
S'climate'
p431
sg27
S'clim.hhe4570.bio08'
p432
sg29
S'6616'
p433
sg31
S'Mean Temperature of Wettest Quarter HE RCP45 2070'
p434
sg33
g34
sg35
g36
sg37
S'clim.hhe4570.bio08.tif'
p435
sg39
S'clim'
p436
sg41
g42
sg43
I4326
sg44
S'2070'
p437
ssssS'agclim'
p438
(dp439
S'he8550'
p440
(dp441
S'bio06'
p442
(dp443
g8
S'2015-03-24 21:18:33'
p444
sg10
S'no'
p445
sg12
S'he8550.bio06'
p446
sg14
I2
sg15
S'bio06'
p447
sg17
S'Min Temperature of Coldest Month'
p448
sg19
S'85'
p449
sg21
g440
sg23
S'../views/GTiff/agclim.he8550.bio06.tif'
p450
sg25
S'agclimate'
p451
sg27
S'agclim.he8550.bio06'
p452
sg29
S'6498'
p453
sg31
S'Min Temperature of Coldest Month'
p454
sg33
g34
sg35
g36
sg37
S'agclim.he8550.bio06.tif'
p455
sg39
S'agclim'
p456
sg41
g42
sg43
I4326
sg44
S'2050'
p457
ssS'bio12'
p458
(dp459
g8
S'2015-03-24 21:18:33'
p460
sg10
S'no'
p461
sg12
S'he8550.bio12'
p462
sg14
I29
sg15
S'bio12'
p463
sg17
S'Annual Precipitation'
p464
sg19
S'85'
p465
sg21
S'he8550'
p466
sg23
S'../views/GTiff/agclim.he8550.bio12.tif'
p467
sg25
S'agclimate'
p468
sg27
S'agclim.he8550.bio12'
p469
sg29
S'6499'
p470
sg31
S'Annual Precipitation'
p471
sg33
g34
sg35
g36
sg37
S'agclim.he8550.bio12.tif'
p472
sg39
S'agclim'
p473
sg41
g42
sg43
I4326
sg44
S'2050'
p474
ssS'gdd5'
p475
(dp476
g8
S'2015-03-24 21:18:33'
p477
sg10
S'no'
p478
sg12
S'he8550.gdd5'
p479
sg14
I50
sg15
S'gdd5'
p480
sg17
S'Growing Degree Days 5C Baseline'
p481
sg19
S'85'
p482
sg21
S'he8550'
p483
sg23
S'../views/GTiff/agclim.he8550.gdd5.tif'
p484
sg25
S'agclimate'
p485
sg27
S'agclim.he8550.gdd5'
p486
sg29
S'6500'
p487
sg31
S'Growing Degree Days 5C Baseline'
p488
sg33
g34
sg35
g36
sg37
S'agclim.he8550.gdd5.tif'
p489
sg39
S'agclim'
p490
sg41
g42
sg43
I4326
sg44
S'2050'
p491
ssS'aridity'
p492
(dp493
g8
S'2015-03-24 21:18:33'
p494
sg10
S'no'
p495
sg12
S'he8550.aridity'
p496
sg14
I3
sg15
S'aridity'
p497
sg17
S'CRU Metric of Mean Annual Aridity'
p498
sg19
S'85'
p499
sg21
S'he8550'
p500
sg23
S'../views/GTiff/agclim.he8550.aridity.tif'
p501
sg25
S'agclimate'
p502
sg27
S'agclim.he8550.aridity'
p503
sg29
S'6501'
p504
sg31
S'CRU Metric of Mean Annual Aridity'
p505
sg33
g34
sg35
g36
sg37
S'agclim.he8550.aridity.tif'
p506
sg39
S'agclim'
p507
sg41
g42
sg43
I4326
sg44
S'2050'
p508
ssS'petmn'
p509
(dp510
g8
S'2015-03-24 21:18:33'
p511
sg10
S'no'
p512
sg12
S'he8550.petmn'
p513
sg14
I78
sg15
S'petmn'
p514
sg17
S'CRU Mean Annual Evapotranspiration'
p515
sg19
S'85'
p516
sg21
S'he8550'
p517
sg23
S'../views/GTiff/agclim.he8550.petmn.tif'
p518
sg25
S'agclimate'
p519
sg27
S'agclim.he8550.petmn'
p520
sg29
S'6502'
p521
sg31
S'CRU Mean Annual Evapotranspiration'
p522
sg33
g34
sg35
g36
sg37
S'agclim.he8550.petmn.tif'
p523
sg39
S'agclim'
p524
sg41
g42
sg43
I4326
sg44
S'2050'
p525
sssS'he2670'
p526
(dp527
S'bio06'
p528
(dp529
g8
S'2015-03-24 21:18:33'
p530
sg10
S'no'
p531
sg12
S'he2670.bio06'
p532
sg14
I64
sg15
S'bio06'
p533
sg17
S'Min Temperature of Coldest Month'
p534
sg19
S'26'
p535
sg21
S'he2670'
p536
sg23
S'../views/GTiff/agclim.he2670.bio06.tif'
p537
sg25
S'agclimate'
p538
sg27
S'agclim.he2670.bio06'
p539
sg29
S'6503'
p540
sg31
S'Min Temperature of Coldest Month'
p541
sg33
g34
sg35
g36
sg37
S'agclim.he2670.bio06.tif'
p542
sg39
S'agclim'
p543
sg41
g42
sg43
I4326
sg44
S'2070'
p544
ssS'bio12'
p545
(dp546
g8
S'2015-03-24 21:18:33'
p547
sg10
S'no'
p548
sg12
S'he2670.bio12'
p549
sg14
I35
sg15
S'bio12'
p550
sg17
S'Annual Precipitation'
p551
sg19
S'26'
p552
sg21
S'he2670'
p553
sg23
S'../views/GTiff/agclim.he2670.bio12.tif'
p554
sg25
S'agclimate'
p555
sg27
S'agclim.he2670.bio12'
p556
sg29
S'6504'
p557
sg31
S'Annual Precipitation'
p558
sg33
g34
sg35
g36
sg37
S'agclim.he2670.bio12.tif'
p559
sg39
S'agclim'
p560
sg41
g42
sg43
I4326
sg44
S'2070'
p561
ssS'gdd5'
p562
(dp563
g8
S'2015-03-24 21:18:33'
p564
sg10
S'no'
p565
sg12
S'he2670.gdd5'
p566
sg14
I8
sg15
S'gdd5'
p567
sg17
S'Growing Degree Days 5C Baseline'
p568
sg19
S'26'
p569
sg21
g526
sg23
S'../views/GTiff/agclim.he2670.gdd5.tif'
p570
sg25
S'agclimate'
p571
sg27
S'agclim.he2670.gdd5'
p572
sg29
S'6505'
p573
sg31
S'Growing Degree Days 5C Baseline'
p574
sg33
g34
sg35
g36
sg37
S'agclim.he2670.gdd5.tif'
p575
sg39
S'agclim'
p576
sg41
g42
sg43
I4326
sg44
S'2070'
p577
ssS'aridity'
p578
(dp579
g8
S'2015-03-24 21:18:33'
p580
sg10
S'no'
p581
sg12
S'he2670.aridity'
p582
sg14
I24
sg15
S'aridity'
p583
sg17
S'CRU Metric of Mean Annual Aridity'
p584
sg19
S'26'
p585
sg21
S'he2670'
p586
sg23
S'../views/GTiff/agclim.he2670.aridity.tif'
p587
sg25
S'agclimate'
p588
sg27
S'agclim.he2670.aridity'
p589
sg29
S'6538'
p590
sg31
S'CRU Metric of Mean Annual Aridity'
p591
sg33
g34
sg35
g36
sg37
S'agclim.he2670.aridity.tif'
p592
sg39
S'agclim'
p593
sg41
g42
sg43
I4326
sg44
S'2070'
p594
ssS'petmn'
p595
(dp596
g8
S'2015-03-24 21:18:33'
p597
sg10
S'no'
p598
sg12
S'he2670.petmn'
p599
sg14
I23
sg15
S'petmn'
p600
sg17
S'CRU Mean Annual Evapotranspiration'
p601
sg19
S'26'
p602
sg21
S'he2670'
p603
sg23
S'../views/GTiff/agclim.he2670.petmn.tif'
p604
sg25
S'agclimate'
p605
sg27
S'agclim.he2670.petmn'
p606
sg29
S'6506'
p607
sg31
S'CRU Mean Annual Evapotranspiration'
p608
sg33
g34
sg35
g36
sg37
S'agclim.he2670.petmn.tif'
p609
sg39
S'agclim'
p610
sg41
g42
sg43
I4326
sg44
S'2070'
p611
sssS'he8570'
p612
(dp613
S'bio06'
p614
(dp615
g8
S'2015-03-24 21:18:33'
p616
sg10
S'no'
p617
sg12
S'he8570.bio06'
p618
sg14
I16
sg15
S'bio06'
p619
sg17
S'Min Temperature of Coldest Month'
p620
sg19
S'85'
p621
sg21
S'he8570'
p622
sg23
S'../views/GTiff/agclim.he8570.bio06.tif'
p623
sg25
S'agclimate'
p624
sg27
S'agclim.he8570.bio06'
p625
sg29
S'6507'
p626
sg31
S'Min Temperature of Coldest Month'
p627
sg33
g34
sg35
g36
sg37
S'agclim.he8570.bio06.tif'
p628
sg39
S'agclim'
p629
sg41
g42
sg43
I4326
sg44
S'2070'
p630
ssS'bio12'
p631
(dp632
g8
S'2015-03-24 21:18:33'
p633
sg10
S'no'
p634
sg12
S'he8570.bio12'
p635
sg14
I65
sg15
S'bio12'
p636
sg17
S'Annual Precipitation'
p637
sg19
S'85'
p638
sg21
S'he8570'
p639
sg23
S'../views/GTiff/agclim.he8570.bio12.tif'
p640
sg25
S'agclimate'
p641
sg27
S'agclim.he8570.bio12'
p642
sg29
S'6508'
p643
sg31
S'Annual Precipitation'
p644
sg33
g34
sg35
g36
sg37
S'agclim.he8570.bio12.tif'
p645
sg39
S'agclim'
p646
sg41
g42
sg43
I4326
sg44
S'2070'
p647
ssS'gdd5'
p648
(dp649
g8
S'2015-03-24 21:18:33'
p650
sg10
S'no'
p651
sg12
S'he8570.gdd5'
p652
sg14
I20
sg15
S'gdd5'
p653
sg17
S'Growing Degree Days 5C Baseline'
p654
sg19
S'85'
p655
sg21
S'he8570'
p656
sg23
S'../views/GTiff/agclim.he8570.gdd5.tif'
p657
sg25
S'agclimate'
p658
sg27
S'agclim.he8570.gdd5'
p659
sg29
S'6539'
p660
sg31
S'Growing Degree Days 5C Baseline'
p661
sg33
g34
sg35
g36
sg37
S'agclim.he8570.gdd5.tif'
p662
sg39
S'agclim'
p663
sg41
g42
sg43
I4326
sg44
S'2070'
p664
ssS'aridity'
p665
(dp666
g8
S'2015-03-24 21:18:33'
p667
sg10
S'no'
p668
sg12
S'he8570.aridity'
p669
sg14
I0
sg15
S'aridity'
p670
sg17
S'CRU Metric of Mean Annual Aridity'
p671
sg19
S'85'
p672
sg21
g612
sg23
S'../views/GTiff/agclim.he8570.aridity.tif'
p673
sg25
S'agclimate'
p674
sg27
S'agclim.he8570.aridity'
p675
sg29
S'6509'
p676
sg31
S'CRU Metric of Mean Annual Aridity'
p677
sg33
g34
sg35
g36
sg37
S'agclim.he8570.aridity.tif'
p678
sg39
g438
sg41
g42
sg43
I4326
sg44
S'2070'
p679
ssS'petmn'
p680
(dp681
g8
S'2015-03-24 21:18:33'
p682
sg10
S'no'
p683
sg12
S'he8570.petmn'
p684
sg14
I66
sg15
S'petmn'
p685
sg17
S'CRU Mean Annual Evapotranspiration'
p686
sg19
S'85'
p687
sg21
S'he8570'
p688
sg23
S'../views/GTiff/agclim.he8570.petmn.tif'
p689
sg25
S'agclimate'
p690
sg27
S'agclim.he8570.petmn'
p691
sg29
S'6540'
p692
sg31
S'CRU Mean Annual Evapotranspiration'
p693
sg33
g34
sg35
g36
sg37
S'agclim.he8570.petmn.tif'
p694
sg39
S'agclim'
p695
sg41
g42
sg43
I4326
sg44
S'2070'
p696
sssS'he2650'
p697
(dp698
S'bio06'
p699
(dp700
g8
S'2015-03-24 21:18:33'
p701
sg10
S'no'
p702
sg12
S'he2650.bio06'
p703
sg14
I76
sg15
S'bio06'
p704
sg17
S'Min Temperature of Coldest Month'
p705
sg19
S'26'
p706
sg21
S'he2650'
p707
sg23
S'../views/GTiff/agclim.he2650.bio06.tif'
p708
sg25
S'agclimate'
p709
sg27
S'agclim.he2650.bio06'
p710
sg29
S'6510'
p711
sg31
S'Min Temperature of Coldest Month'
p712
sg33
g34
sg35
g36
sg37
S'agclim.he2650.bio06.tif'
p713
sg39
S'agclim'
p714
sg41
g42
sg43
I4326
sg44
S'2050'
p715
ssS'bio12'
p716
(dp717
g8
S'2015-03-24 21:18:33'
p718
sg10
S'no'
p719
sg12
S'he2650.bio12'
p720
sg14
I33
sg15
S'bio12'
p721
sg17
S'Annual Precipitation'
p722
sg19
S'26'
p723
sg21
g697
sg23
S'../views/GTiff/agclim.he2650.bio12.tif'
p724
sg25
S'agclimate'
p725
sg27
S'agclim.he2650.bio12'
p726
sg29
S'6511'
p727
sg31
S'Annual Precipitation'
p728
sg33
g34
sg35
g36
sg37
S'agclim.he2650.bio12.tif'
p729
sg39
S'agclim'
p730
sg41
g42
sg43
I4326
sg44
S'2050'
p731
ssS'gdd5'
p732
(dp733
g8
S'2015-03-24 21:18:33'
p734
sg10
S'no'
p735
sg12
S'he2650.gdd5'
p736
sg14
I49
sg15
S'gdd5'
p737
sg17
S'Growing Degree Days 5C Baseline'
p738
sg19
S'26'
p739
sg21
S'he2650'
p740
sg23
S'../views/GTiff/agclim.he2650.gdd5.tif'
p741
sg25
S'agclimate'
p742
sg27
S'agclim.he2650.gdd5'
p743
sg29
S'6512'
p744
sg31
S'Growing Degree Days 5C Baseline'
p745
sg33
g34
sg35
g36
sg37
S'agclim.he2650.gdd5.tif'
p746
sg39
S'agclim'
p747
sg41
g42
sg43
I4326
sg44
S'2050'
p748
ssS'aridity'
p749
(dp750
g8
S'2015-03-24 21:18:33'
p751
sg10
S'no'
p752
sg12
S'he2650.aridity'
p753
sg14
I54
sg15
S'aridity'
p754
sg17
S'CRU Metric of Mean Annual Aridity'
p755
sg19
S'26'
p756
sg21
S'he2650'
p757
sg23
S'../views/GTiff/agclim.he2650.aridity.tif'
p758
sg25
S'agclimate'
p759
sg27
S'agclim.he2650.aridity'
p760
sg29
S'6541'
p761
sg31
S'CRU Metric of Mean Annual Aridity'
p762
sg33
g34
sg35
g36
sg37
S'agclim.he2650.aridity.tif'
p763
sg39
S'agclim'
p764
sg41
g42
sg43
I4326
sg44
S'2050'
p765
ssS'petmn'
p766
(dp767
g8
S'2015-03-24 21:18:33'
p768
sg10
S'no'
p769
sg12
S'he2650.petmn'
p770
sg14
I47
sg15
S'petmn'
p771
sg17
S'CRU Mean Annual Evapotranspiration'
p772
sg19
S'26'
p773
sg21
S'he2650'
p774
sg23
S'../views/GTiff/agclim.he2650.petmn.tif'
p775
sg25
S'agclimate'
p776
sg27
S'agclim.he2650.petmn'
p777
sg29
S'6542'
p778
sg31
S'CRU Mean Annual Evapotranspiration'
p779
sg33
g34
sg35
g36
sg37
S'agclim.he2650.petmn.tif'
p780
sg39
S'agclim'
p781
sg41
g42
sg43
I4326
sg44
S'2050'
p782
sssS'current'
p783
(dp784
S'bio06'
p785
(dp786
g8
S'2015-03-24 21:18:33'
p787
sg10
S'no'
p788
sg12
S'current.bio06'
p789
sg14
I60
sg15
S'bio06'
p790
sg17
S'Min Temperature of Coldest Month'
p791
sg19
S'current'
p792
sg21
S'current'
p793
sg23
S'../views/GTiff/agclim.current.bio06.tif'
p794
sg25
S'agclimate'
p795
sg27
S'agclim.current.bio06'
p796
sg29
S'6513'
p797
sg31
S'Min Temperature of Coldest Month'
p798
sg33
g34
sg35
g36
sg37
S'agclim.current.bio06.tif'
p799
sg39
S'agclim'
p800
sg41
g42
sg43
I4326
sg44
S'current'
p801
ssS'bio12'
p802
(dp803
g8
S'2015-03-24 21:18:33'
p804
sg10
S'no'
p805
sg12
S'current.bio12'
p806
sg14
I6
sg15
S'bio12'
p807
sg17
S'Annual Precipitation'
p808
sg19
S'current'
p809
sg21
g783
sg23
S'../views/GTiff/agclim.current.bio12.tif'
p810
sg25
S'agclimate'
p811
sg27
S'agclim.current.bio12'
p812
sg29
S'6514'
p813
sg31
S'Annual Precipitation'
p814
sg33
g34
sg35
g36
sg37
S'agclim.current.bio12.tif'
p815
sg39
S'agclim'
p816
sg41
g42
sg43
I4326
sg44
S'current'
p817
ssS'gdd5'
p818
(dp819
g8
S'2015-03-24 21:18:33'
p820
sg10
S'no'
p821
sg12
S'current.gdd5'
p822
sg14
I51
sg15
S'gdd5'
p823
sg17
S'Growing Degree Days 5C Baseline'
p824
sg19
S'current'
p825
sg21
S'current'
p826
sg23
S'../views/GTiff/agclim.current.gdd5.tif'
p827
sg25
S'agclimate'
p828
sg27
S'agclim.current.gdd5'
p829
sg29
S'6515'
p830
sg31
S'Growing Degree Days 5C Baseline'
p831
sg33
g34
sg35
g36
sg37
S'agclim.current.gdd5.tif'
p832
sg39
S'agclim'
p833
sg41
g42
sg43
I4326
sg44
S'current'
p834
ssS'aridity'
p835
(dp836
g8
S'2015-03-24 21:18:33'
p837
sg10
S'no'
p838
sg12
S'current.aridity'
p839
sg14
I72
sg15
S'aridity'
p840
sg17
S'CRU Metric of Mean Annual Aridity'
p841
sg19
S'current'
p842
sg21
S'current'
p843
sg23
S'../views/GTiff/agclim.current.aridity.tif'
p844
sg25
S'agclimate'
p845
sg27
S'agclim.current.aridity'
p846
sg29
S'6516'
p847
sg31
S'CRU Metric of Mean Annual Aridity'
p848
sg33
g34
sg35
g36
sg37
S'agclim.current.aridity.tif'
p849
sg39
S'agclim'
p850
sg41
g42
sg43
I4326
sg44
S'current'
p851
ssS'petmn'
p852
(dp853
g8
S'2015-03-24 21:18:33'
p854
sg10
S'no'
p855
sg12
S'current.petmn'
p856
sg14
I57
sg15
S'petmn'
p857
sg17
S'CRU Mean Annual Evapotranspiration'
p858
sg19
S'current'
p859
sg21
S'current'
p860
sg23
S'../views/GTiff/agclim.current.petmn.tif'
p861
sg25
S'agclimate'
p862
sg27
S'agclim.current.petmn'
p863
sg29
S'6517'
p864
sg31
S'CRU Mean Annual Evapotranspiration'
p865
sg33
g34
sg35
g36
sg37
S'agclim.current.petmn.tif'
p866
sg39
S'agclim'
p867
sg41
g42
sg43
I4326
sg44
S'current'
p868
sssS'he6050'
p869
(dp870
S'bio06'
p871
(dp872
g8
S'2015-03-24 21:18:33'
p873
sg10
S'no'
p874
sg12
S'he6050.bio06'
p875
sg14
I63
sg15
S'bio06'
p876
sg17
S'Min Temperature of Coldest Month'
p877
sg19
S'60'
p878
sg21
S'he6050'
p879
sg23
S'../views/GTiff/agclim.he6050.bio06.tif'
p880
sg25
S'agclimate'
p881
sg27
S'agclim.he6050.bio06'
p882
sg29
S'6518'
p883
sg31
S'Min Temperature of Coldest Month'
p884
sg33
g34
sg35
g36
sg37
S'agclim.he6050.bio06.tif'
p885
sg39
S'agclim'
p886
sg41
g42
sg43
I4326
sg44
S'2050'
p887
ssS'bio12'
p888
(dp889
g8
S'2015-03-24 21:18:33'
p890
sg10
S'no'
p891
sg12
S'he6050.bio12'
p892
sg14
I71
sg15
S'bio12'
p893
sg17
S'Annual Precipitation'
p894
sg19
S'60'
p895
sg21
S'he6050'
p896
sg23
S'../views/GTiff/agclim.he6050.bio12.tif'
p897
sg25
S'agclimate'
p898
sg27
S'agclim.he6050.bio12'
p899
sg29
S'6519'
p900
sg31
S'Annual Precipitation'
p901
sg33
g34
sg35
g36
sg37
S'agclim.he6050.bio12.tif'
p902
sg39
S'agclim'
p903
sg41
g42
sg43
I4326
sg44
S'2050'
p904
ssS'gdd5'
p905
(dp906
g8
S'2015-03-24 21:18:33'
p907
sg10
S'no'
p908
sg12
S'he6050.gdd5'
p909
sg14
I56
sg15
S'gdd5'
p910
sg17
S'Growing Degree Days 5C Baseline'
p911
sg19
S'60'
p912
sg21
S'he6050'
p913
sg23
S'../views/GTiff/agclim.he6050.gdd5.tif'
p914
sg25
S'agclimate'
p915
sg27
S'agclim.he6050.gdd5'
p916
sg29
S'6520'
p917
sg31
S'Growing Degree Days 5C Baseline'
p918
sg33
g34
sg35
g36
sg37
S'agclim.he6050.gdd5.tif'
p919
sg39
S'agclim'
p920
sg41
g42
sg43
I4326
sg44
S'2050'
p921
ssS'aridity'
p922
(dp923
g8
S'2015-03-24 21:18:33'
p924
sg10
S'no'
p925
sg12
S'he6050.aridity'
p926
sg14
I17
sg15
S'aridity'
p927
sg17
S'CRU Metric of Mean Annual Aridity'
p928
sg19
S'60'
p929
sg21
S'he6050'
p930
sg23
S'../views/GTiff/agclim.he6050.aridity.tif'
p931
sg25
S'agclimate'
p932
sg27
S'agclim.he6050.aridity'
p933
sg29
S'6521'
p934
sg31
S'CRU Metric of Mean Annual Aridity'
p935
sg33
g34
sg35
g36
sg37
S'agclim.he6050.aridity.tif'
p936
sg39
S'agclim'
p937
sg41
g42
sg43
I4326
sg44
S'2050'
p938
ssS'petmn'
p939
(dp940
g8
S'2015-03-24 21:18:33'
p941
sg10
S'no'
p942
sg12
S'he6050.petmn'
p943
sg14
I10
sg15
S'petmn'
p944
sg17
S'CRU Mean Annual Evapotranspiration'
p945
sg19
S'60'
p946
sg21
g869
sg23
S'../views/GTiff/agclim.he6050.petmn.tif'
p947
sg25
S'agclimate'
p948
sg27
S'agclim.he6050.petmn'
p949
sg29
S'6522'
p950
sg31
S'CRU Mean Annual Evapotranspiration'
p951
sg33
g34
sg35
g36
sg37
S'agclim.he6050.petmn.tif'
p952
sg39
S'agclim'
p953
sg41
g42
sg43
I4326
sg44
S'2050'
p954
sssS'he4550'
p955
(dp956
S'bio06'
p957
(dp958
g8
S'2015-03-24 21:18:33'
p959
sg10
S'no'
p960
sg12
S'he4550.bio06'
p961
sg14
I55
sg15
S'bio06'
p962
sg17
S'Min Temperature of Coldest Month'
p963
sg19
S'45'
p964
sg21
S'he4550'
p965
sg23
S'../views/GTiff/agclim.he4550.bio06.tif'
p966
sg25
S'agclimate'
p967
sg27
S'agclim.he4550.bio06'
p968
sg29
S'6528'
p969
sg31
S'Min Temperature of Coldest Month'
p970
sg33
g34
sg35
g36
sg37
S'agclim.he4550.bio06.tif'
p971
sg39
S'agclim'
p972
sg41
g42
sg43
I4326
sg44
S'2050'
p973
ssS'bio12'
p974
(dp975
g8
S'2015-03-24 21:18:33'
p976
sg10
S'no'
p977
sg12
S'he4550.bio12'
p978
sg14
I32
sg15
S'bio12'
p979
sg17
S'Annual Precipitation'
p980
sg19
S'45'
p981
sg21
S'he4550'
p982
sg23
S'../views/GTiff/agclim.he4550.bio12.tif'
p983
sg25
S'agclimate'
p984
sg27
S'agclim.he4550.bio12'
p985
sg29
S'6529'
p986
sg31
S'Annual Precipitation'
p987
sg33
g34
sg35
g36
sg37
S'agclim.he4550.bio12.tif'
p988
sg39
S'agclim'
p989
sg41
g42
sg43
I4326
sg44
S'2050'
p990
ssS'gdd5'
p991
(dp992
g8
S'2015-03-24 21:18:33'
p993
sg10
S'no'
p994
sg12
S'he4550.gdd5'
p995
sg14
I45
sg15
S'gdd5'
p996
sg17
S'Growing Degree Days 5C Baseline'
p997
sg19
S'45'
p998
sg21
S'he4550'
p999
sg23
S'../views/GTiff/agclim.he4550.gdd5.tif'
p1000
sg25
S'agclimate'
p1001
sg27
S'agclim.he4550.gdd5'
p1002
sg29
S'6530'
p1003
sg31
S'Growing Degree Days 5C Baseline'
p1004
sg33
g34
sg35
g36
sg37
S'agclim.he4550.gdd5.tif'
p1005
sg39
S'agclim'
p1006
sg41
g42
sg43
I4326
sg44
S'2050'
p1007
ssS'aridity'
p1008
(dp1009
g8
S'2015-03-24 21:18:33'
p1010
sg10
S'no'
p1011
sg12
S'he4550.aridity'
p1012
sg14
I19
sg15
S'aridity'
p1013
sg17
S'CRU Metric of Mean Annual Aridity'
p1014
sg19
S'45'
p1015
sg21
S'he4550'
p1016
sg23
S'../views/GTiff/agclim.he4550.aridity.tif'
p1017
sg25
S'agclimate'
p1018
sg27
S'agclim.he4550.aridity'
p1019
sg29
S'6531'
p1020
sg31
S'CRU Metric of Mean Annual Aridity'
p1021
sg33
g34
sg35
g36
sg37
S'agclim.he4550.aridity.tif'
p1022
sg39
S'agclim'
p1023
sg41
g42
sg43
I4326
sg44
S'2050'
p1024
ssS'petmn'
p1025
(dp1026
g8
S'2015-03-24 21:18:33'
p1027
sg10
S'no'
p1028
sg12
S'he4550.petmn'
p1029
sg14
I5
sg15
S'petmn'
p1030
sg17
S'CRU Mean Annual Evapotranspiration'
p1031
sg19
S'45'
p1032
sg21
g955
sg23
S'../views/GTiff/agclim.he4550.petmn.tif'
p1033
sg25
S'agclimate'
p1034
sg27
S'agclim.he4550.petmn'
p1035
sg29
S'6532'
p1036
sg31
S'CRU Mean Annual Evapotranspiration'
p1037
sg33
g34
sg35
g36
sg37
S'agclim.he4550.petmn.tif'
p1038
sg39
S'agclim'
p1039
sg41
g42
sg43
I4326
sg44
S'2050'
p1040
sssS'he6070'
p1041
(dp1042
S'bio06'
p1043
(dp1044
g8
S'2015-03-24 21:18:33'
p1045
sg10
S'no'
p1046
sg12
S'he6070.bio06'
p1047
sg14
I37
sg15
S'bio06'
p1048
sg17
S'Min Temperature of Coldest Month'
p1049
sg19
S'60'
p1050
sg21
S'he6070'
p1051
sg23
S'../views/GTiff/agclim.he6070.bio06.tif'
p1052
sg25
S'agclimate'
p1053
sg27
S'agclim.he6070.bio06'
p1054
sg29
S'6523'
p1055
sg31
S'Min Temperature of Coldest Month'
p1056
sg33
g34
sg35
g36
sg37
S'agclim.he6070.bio06.tif'
p1057
sg39
S'agclim'
p1058
sg41
g42
sg43
I4326
sg44
S'2070'
p1059
ssS'bio12'
p1060
(dp1061
g8
S'2015-03-24 21:18:33'
p1062
sg10
S'no'
p1063
sg12
S'he6070.bio12'
p1064
sg14
I40
sg15
S'bio12'
p1065
sg17
S'Annual Precipitation'
p1066
sg19
S'60'
p1067
sg21
S'he6070'
p1068
sg23
S'../views/GTiff/agclim.he6070.bio12.tif'
p1069
sg25
S'agclimate'
p1070
sg27
S'agclim.he6070.bio12'
p1071
sg29
S'6524'
p1072
sg31
S'Annual Precipitation'
p1073
sg33
g34
sg35
g36
sg37
S'agclim.he6070.bio12.tif'
p1074
sg39
S'agclim'
p1075
sg41
g42
sg43
I4326
sg44
S'2070'
p1076
ssS'gdd5'
p1077
(dp1078
g8
S'2015-03-24 21:18:33'
p1079
sg10
S'no'
p1080
sg12
S'he6070.gdd5'
p1081
sg14
I15
sg15
S'gdd5'
p1082
sg17
S'Growing Degree Days 5C Baseline'
p1083
sg19
S'60'
p1084
sg21
S'he6070'
p1085
sg23
S'../views/GTiff/agclim.he6070.gdd5.tif'
p1086
sg25
S'agclimate'
p1087
sg27
S'agclim.he6070.gdd5'
p1088
sg29
S'6525'
p1089
sg31
S'Growing Degree Days 5C Baseline'
p1090
sg33
g34
sg35
g36
sg37
S'agclim.he6070.gdd5.tif'
p1091
sg39
S'agclim'
p1092
sg41
g42
sg43
I4326
sg44
S'2070'
p1093
ssS'aridity'
p1094
(dp1095
g8
S'2015-03-24 21:18:33'
p1096
sg10
S'no'
p1097
sg12
S'he6070.aridity'
p1098
sg14
I7
sg15
S'aridity'
p1099
sg17
S'CRU Metric of Mean Annual Aridity'
p1100
sg19
S'60'
p1101
sg21
g1041
sg23
S'../views/GTiff/agclim.he6070.aridity.tif'
p1102
sg25
S'agclimate'
p1103
sg27
S'agclim.he6070.aridity'
p1104
sg29
S'6526'
p1105
sg31
S'CRU Metric of Mean Annual Aridity'
p1106
sg33
g34
sg35
g36
sg37
S'agclim.he6070.aridity.tif'
p1107
sg39
S'agclim'
p1108
sg41
g42
sg43
I4326
sg44
S'2070'
p1109
ssS'petmn'
p1110
(dp1111
g8
S'2015-03-24 21:18:33'
p1112
sg10
S'no'
p1113
sg12
S'he6070.petmn'
p1114
sg14
I26
sg15
S'petmn'
p1115
sg17
S'CRU Mean Annual Evapotranspiration'
p1116
sg19
S'60'
p1117
sg21
S'he6070'
p1118
sg23
S'../views/GTiff/agclim.he6070.petmn.tif'
p1119
sg25
S'agclimate'
p1120
sg27
S'agclim.he6070.petmn'
p1121
sg29
S'6527'
p1122
sg31
S'CRU Mean Annual Evapotranspiration'
p1123
sg33
g34
sg35
g36
sg37
S'agclim.he6070.petmn.tif'
p1124
sg39
S'agclim'
p1125
sg41
g42
sg43
I4326
sg44
S'2070'
p1126
sssS'he4570'
p1127
(dp1128
S'bio06'
p1129
(dp1130
g8
S'2015-03-24 21:18:33'
p1131
sg10
S'no'
p1132
sg12
S'he4570.bio06'
p1133
sg14
I53
sg15
S'bio06'
p1134
sg17
S'Min Temperature of Coldest Month'
p1135
sg19
S'45'
p1136
sg21
S'he4570'
p1137
sg23
S'../views/GTiff/agclim.he4570.bio06.tif'
p1138
sg25
S'agclimate'
p1139
sg27
S'agclim.he4570.bio06'
p1140
sg29
S'6533'
p1141
sg31
S'Min Temperature of Coldest Month'
p1142
sg33
g34
sg35
g36
sg37
S'agclim.he4570.bio06.tif'
p1143
sg39
S'agclim'
p1144
sg41
g42
sg43
I4326
sg44
S'2070'
p1145
ssS'bio12'
p1146
(dp1147
g8
S'2015-03-24 21:18:33'
p1148
sg10
S'no'
p1149
sg12
S'he4570.bio12'
p1150
sg14
I28
sg15
S'bio12'
p1151
sg17
S'Annual Precipitation'
p1152
sg19
S'45'
p1153
sg21
S'he4570'
p1154
sg23
S'../views/GTiff/agclim.he4570.bio12.tif'
p1155
sg25
S'agclimate'
p1156
sg27
S'agclim.he4570.bio12'
p1157
sg29
S'6534'
p1158
sg31
S'Annual Precipitation'
p1159
sg33
g34
sg35
g36
sg37
S'agclim.he4570.bio12.tif'
p1160
sg39
S'agclim'
p1161
sg41
g42
sg43
I4326
sg44
S'2070'
p1162
ssS'gdd5'
p1163
(dp1164
g8
S'2015-03-24 21:18:33'
p1165
sg10
S'no'
p1166
sg12
S'he4570.gdd5'
p1167
sg14
I27
sg15
S'gdd5'
p1168
sg17
S'Growing Degree Days 5C Baseline'
p1169
sg19
S'45'
p1170
sg21
S'he4570'
p1171
sg23
S'../views/GTiff/agclim.he4570.gdd5.tif'
p1172
sg25
S'agclimate'
p1173
sg27
S'agclim.he4570.gdd5'
p1174
sg29
S'6535'
p1175
sg31
S'Growing Degree Days 5C Baseline'
p1176
sg33
g34
sg35
g36
sg37
S'agclim.he4570.gdd5.tif'
p1177
sg39
S'agclim'
p1178
sg41
g42
sg43
I4326
sg44
S'2070'
p1179
ssS'aridity'
p1180
(dp1181
g8
S'2015-03-24 21:18:33'
p1182
sg10
S'no'
p1183
sg12
S'he4570.aridity'
p1184
sg14
I74
sg15
S'aridity'
p1185
sg17
S'CRU Metric of Mean Annual Aridity'
p1186
sg19
S'45'
p1187
sg21
S'he4570'
p1188
sg23
S'../views/GTiff/agclim.he4570.aridity.tif'
p1189
sg25
S'agclimate'
p1190
sg27
S'agclim.he4570.aridity'
p1191
sg29
S'6536'
p1192
sg31
S'CRU Metric of Mean Annual Aridity'
p1193
sg33
g34
sg35
g36
sg37
S'agclim.he4570.aridity.tif'
p1194
sg39
S'agclim'
p1195
sg41
g42
sg43
I4326
sg44
S'2070'
p1196
ssS'petmn'
p1197
(dp1198
g8
S'2015-03-24 21:18:33'
p1199
sg10
S'no'
p1200
sg12
S'he4570.petmn'
p1201
sg14
I1
sg15
S'petmn'
p1202
sg17
S'CRU Mean Annual Evapotranspiration'
p1203
sg19
S'45'
p1204
sg21
g1127
sg23
S'../views/GTiff/agclim.he4570.petmn.tif'
p1205
sg25
S'agclimate'
p1206
sg27
S'agclim.he4570.petmn'
p1207
sg29
S'6537'
p1208
sg31
S'CRU Mean Annual Evapotranspiration'
p1209
sg33
g34
sg35
g36
sg37
S'agclim.he4570.petmn.tif'
p1210
sg39
S'agclim'
p1211
sg41
g42
sg43
I4326
sg44
S'2070'
p1212
ssssS'env'
p1213
(dp1214
S'hwsd'
p1215
(dp1216
S't_gravel'
p1217
(dp1218
g8
S'2015-03-24 21:18:33'
p1219
sg10
S'no'
p1220
sg12
S'hwsd.t_gravel'
p1221
sg14
I9
sg15
S't_gravel'
p1222
sg17
S'HWSD topsoil gravel'
p1223
sg19
S'current'
p1224
sg21
g1215
sg23
S'../views/GTiff/env.hwsd.t_gravel.tif'
p1225
sg25
S'environmental'
p1226
sg27
S'env.hwsd.t_gravel'
p1227
sg29
S'6346'
p1228
sg31
S'Harmonized World Soil Database topsoil gravel (% vol.)'
p1229
sg33
g34
sg35
g36
sg37
S'env.hwsd.t_gravel.tif'
p1230
sg39
g1213
sg41
g42
sg43
I4326
sg44
S'current'
p1231
ssS't_ph'
p1232
(dp1233
g8
S'2015-03-24 21:18:33'
p1234
sg10
S'no'
p1235
sg12
S'hwsd.t_ph'
p1236
sg14
I46
sg15
S't_ph'
p1237
sg17
S'HWSD topsoil pH'
p1238
sg19
S'current'
p1239
sg21
S'hwsd'
p1240
sg23
S'../views/GTiff/env.hwsd.t_ph.tif'
p1241
sg25
S'environmental'
p1242
sg27
S'env.hwsd.t_ph'
p1243
sg29
S'6348'
p1244
sg31
S'Harmonized World Soil Database topsoil pH (log[H+])'
p1245
sg33
g34
sg35
g36
sg37
S'env.hwsd.t_ph.tif'
p1246
sg39
S'env'
p1247
sg41
g42
sg43
I4326
sg44
S'current'
p1248
ssS't_sand'
p1249
(dp1250
g8
S'2015-03-24 21:18:33'
p1251
sg10
S'no'
p1252
sg12
S'hwsd.t_sand'
p1253
sg14
I52
sg15
S't_sand'
p1254
sg17
S'HWSD topsoil sand'
p1255
sg19
S'current'
p1256
sg21
S'hwsd'
p1257
sg23
S'../views/GTiff/env.hwsd.t_sand.tif'
p1258
sg25
S'environmental'
p1259
sg27
S'env.hwsd.t_sand'
p1260
sg29
S'6347'
p1261
sg31
S'Harmonized World Soil Database topsoil sand (% frac.)'
p1262
sg33
g34
sg35
g36
sg37
S'env.hwsd.t_sand.tif'
p1263
sg39
S'env'
p1264
sg41
g42
sg43
I4326
sg44
S'current'
p1265
ssS't_ece'
p1266
(dp1267
g8
S'2015-03-24 21:18:33'
p1268
sg10
S'no'
p1269
sg12
S'hwsd.t_ece'
p1270
sg14
I30
sg15
S't_ece'
p1271
sg17
S'HWSD topsoil ECE'
p1272
sg19
S'current'
p1273
sg21
S'hwsd'
p1274
sg23
S'../views/GTiff/env.hwsd.t_ece.tif'
p1275
sg25
S'environmental'
p1276
sg27
S'env.hwsd.t_ece'
p1277
sg29
S'6350'
p1278
sg31
S'Harmonized World Soil Database topsoil ECE (salinity dS/m)'
p1279
sg33
g34
sg35
g36
sg37
S'env.hwsd.t_ece.tif'
p1280
sg39
S'env'
p1281
sg41
g42
sg43
I4326
sg44
S'current'
p1282
ssS't_silt'
p1283
(dp1284
g8
S'2015-03-24 21:18:33'
p1285
sg10
S'no'
p1286
sg12
S'hwsd.t_silt'
p1287
sg14
I39
sg15
S't_silt'
p1288
sg17
S'HWSD topsoil silt'
p1289
sg19
S'current'
p1290
sg21
S'hwsd'
p1291
sg23
S'../views/GTiff/env.hwsd.t_silt.tif'
p1292
sg25
S'environmental'
p1293
sg27
S'env.hwsd.t_silt'
p1294
sg29
S'6351'
p1295
sg31
S'Harmonized World Soil Database topsoil silt (% frac.)'
p1296
sg33
g34
sg35
g36
sg37
S'env.hwsd.t_silt.tif'
p1297
sg39
S'env'
p1298
sg41
g42
sg43
I4326
sg44
S'current'
p1299
ssS't_clay'
p1300
(dp1301
g8
S'2015-03-24 21:18:33'
p1302
sg10
S'no'
p1303
sg12
S'hwsd.t_clay'
p1304
sg14
I42
sg15
S't_clay'
p1305
sg17
S'HWSD topsoil clay'
p1306
sg19
S'current'
p1307
sg21
S'hwsd'
p1308
sg23
S'../views/GTiff/env.hwsd.t_clay.tif'
p1309
sg25
S'environmental'
p1310
sg27
S'env.hwsd.t_clay'
p1311
sg29
S'6352'
p1312
sg31
S'Harmonized World Soil Database topsoil clay (% frac.)'
p1313
sg33
g34
sg35
g36
sg37
S'env.hwsd.t_clay.tif'
p1314
sg39
S'env'
p1315
sg41
g42
sg43
I4326
sg44
S'current'
p1316
ssS't_oc'
p1317
(dp1318
g8
S'2015-03-24 21:18:33'
p1319
sg10
S'no'
p1320
sg12
S'hwsd.t_oc'
p1321
sg14
I36
sg15
S't_oc'
p1322
sg17
S'HWSD topsoil oc'
p1323
sg19
S'current'
p1324
sg21
S'hwsd'
p1325
sg23
S'../views/GTiff/env.hwsd.t_oc.tif'
p1326
sg25
S'environmental'
p1327
sg27
S'env.hwsd.t_oc'
p1328
sg29
S'6355'
p1329
sg31
S'Harmonized World Soil Database topsoil organic carbon (% weight)'
p1330
sg33
g34
sg35
g36
sg37
S'env.hwsd.t_oc.tif'
p1331
sg39
S'env'
p1332
sg41
g42
sg43
I4326
sg44
S'current'
p1333
sssS'gmted2010'
p1334
(dp1335
S'elev_mean'
p1336
(dp1337
g8
S'2015-03-24 21:18:33'
p1338
sg10
S'no'
p1339
sg12
S'gmted2010.elev_mean'
p1340
sg14
I75
sg15
S'elev_mean'
p1341
sg17
S'USGS GMTED2010 Mean Elevation'
p1342
sg19
S'current'
p1343
sg21
g1334
sg23
S'../views/GTiff/env.gmted2010.elev_mean.tif'
p1344
sg25
S'environmental'
p1345
sg27
S'env.gmted2010.elev_mean'
p1346
sg29
S'6345'
p1347
sg31
S'USGS GMTED2010 Mean Elevation'
p1348
sg33
g34
sg35
g36
sg37
S'env.gmted2010.elev_mean.tif'
p1349
sg39
S'env'
p1350
sg41
g42
sg43
I4326
sg44
S'current'
p1351
ssssS'spat'
p1352
(dp1353
S'svd'
p1354
(dp1355
S'pc2'
p1356
(dp1357
g8
S'2015-03-24 21:18:33'
p1358
sg10
S'no'
p1359
sg12
S'svd.pc2'
p1360
sg14
I12
sg15
S'pc2'
p1361
sg17
S'PC Axis 2 of Distance Matrix'
p1362
sg19
S'current'
p1363
sg21
g1354
sg23
S'../views/GTiff/spat.svd.pc2.tif'
p1364
sg25
S'spatial'
p1365
sg27
S'spat.svd.pc2'
p1366
sg29
S'6557'
p1367
sg31
S'PC Axis 2 of Distance Matrix spatial'
p1368
sg33
g34
sg35
g36
sg37
S'spat.svd.pc2.tif'
p1369
sg39
g1352
sg41
g42
sg43
I4326
sg44
S'current'
p1370
ssS'pc3'
p1371
(dp1372
g8
S'2015-03-24 21:18:33'
p1373
sg10
S'no'
p1374
sg12
S'svd.pc3'
p1375
sg14
I43
sg15
S'pc3'
p1376
sg17
S'PC Axis 3 of Distance Matrix'
p1377
sg19
S'current'
p1378
sg21
S'svd'
p1379
sg23
S'../views/GTiff/spat.svd.pc3.tif'
p1380
sg25
S'spatial'
p1381
sg27
S'spat.svd.pc3'
p1382
sg29
S'6558'
p1383
sg31
S'PC Axis 3 of Distance Matrix spatial'
p1384
sg33
g34
sg35
g36
sg37
S'spat.svd.pc3.tif'
p1385
sg39
S'spat'
p1386
sg41
g42
sg43
I4326
sg44
S'current'
p1387
ssS'pc1'
p1388
(dp1389
g8
S'2015-03-24 21:18:33'
p1390
sg10
S'no'
p1391
sg12
S'svd.pc1'
p1392
sg14
I67
sg15
S'pc1'
p1393
sg17
S'PC Axis 1 of Distance Matrix'
p1394
sg19
S'current'
p1395
sg21
S'svd'
p1396
sg23
S'../views/GTiff/spat.svd.pc1.tif'
p1397
sg25
S'spatial'
p1398
sg27
S'spat.svd.pc1'
p1399
sg29
S'6559'
p1400
sg31
S'PC Axis 1 of Distance Matrix spatial'
p1401
sg33
g34
sg35
g36
sg37
S'spat.svd.pc1.tif'
p1402
sg39
S'spat'
p1403
sg41
g42
sg43
I4326
sg44
S'current'
p1404
ssss.