(dp1
S'clim'
p2
(dp3
S'he8550'
p4
(dp5
S'bio07'
p6
(dp7
S'model'
p8
S'clim'
p9
sS'epsgCode'
p10
I4326
sS'Correlated'
p11
S'yes'
p12
sS'envLayerType'
p13
S'he8550.bio07'
p14
sS'Name'
p15
I279
sS'typeCode'
p16
S'bio07'
p17
sS'typeCodeDescription'
p18
S'Temperature Annual Range (BIO5-BIO6)'
p19
sS'filterType'
p20
S'climate'
p21
sS'created_at'
p22
S'2015-03-24 21:05:32'
p23
sS'filePath'
p24
S'../views/GTiff/clim.he8550.bio07.tif'
p25
sS'RCP'
p26
S'85'
p27
sS'lyrID'
p28
S'6176'
p29
sS'title'
p30
S'clim.he8550.bio07.tif'
p31
sS'dataFormat'
p32
S'GTiff'
p33
sS'units'
p34
S'dd'
p35
sS'layerDescription'
p36
S'Temperature Annual Range (BIO5-BIO6) HE RCP85 2050'
p37
sS'fullname'
p38
S'clim.he8550.bio07'
p39
sS'resolution'
p40
S'30'
p41
sS'bioclim'
p42
S'he8550'
p43
sS'projectionDate'
p44
S'2050'
p45
ssS'bio01'
p46
(dp47
g8
S'clim'
p48
sg10
I4326
sg11
S'yes'
p49
sg13
S'he8550.bio01'
p50
sg15
I4
sg16
S'bio01'
p51
sg18
S'Annual Mean Temperature'
p52
sg20
S'climate'
p53
sg22
S'2015-03-24 21:05:32'
p54
sg24
S'../views/GTiff/clim.he8550.bio01.tif'
p55
sg26
S'85'
p56
sg28
S'6182'
p57
sg30
S'clim.he8550.bio01.tif'
p58
sg32
g33
sg34
g35
sg36
S'Annual Mean Temperature HE RCP85 2050'
p59
sg38
S'clim.he8550.bio01'
p60
sg40
g41
sg42
g4
sg44
S'2050'
p61
ssS'bio11'
p62
(dp63
g8
S'clim'
p64
sg10
I4326
sg11
S'yes'
p65
sg13
S'he8550.bio11'
p66
sg15
I216
sg16
S'bio11'
p67
sg18
S'Mean Temperature of Coldest Quarter'
p68
sg20
S'climate'
p69
sg22
S'2015-03-24 21:05:32'
p70
sg24
S'../views/GTiff/clim.he8550.bio11.tif'
p71
sg26
S'85'
p72
sg28
S'6172'
p73
sg30
S'clim.he8550.bio11.tif'
p74
sg32
g33
sg34
g35
sg36
S'Mean Temperature of Coldest Quarter HE RCP85 2050'
p75
sg38
S'clim.he8550.bio11'
p76
sg40
g41
sg42
S'he8550'
p77
sg44
S'2050'
p78
ssS'bio09'
p79
(dp80
g8
S'clim'
p81
sg10
I4326
sg11
S'yes'
p82
sg13
S'he8550.bio09'
p83
sg15
I93
sg16
S'bio09'
p84
sg18
S'Mean Temperature of Driest Quarter'
p85
sg20
S'climate'
p86
sg22
S'2015-03-24 21:05:32'
p87
sg24
S'../views/GTiff/clim.he8550.bio09.tif'
p88
sg26
S'85'
p89
sg28
S'6186'
p90
sg30
S'clim.he8550.bio09.tif'
p91
sg32
g33
sg34
g35
sg36
S'Mean Temperature of Driest Quarter HE RCP85 2050'
p92
sg38
S'clim.he8550.bio09'
p93
sg40
g41
sg42
S'he8550'
p94
sg44
S'2050'
p95
ssS'bio12'
p96
(dp97
g8
S'clim'
p98
sg10
I4326
sg11
S'yes'
p99
sg13
S'he8550.bio12'
p100
sg15
I153
sg16
S'bio12'
p101
sg18
S'Annual Precipitation'
p102
sg20
S'climate'
p103
sg22
S'2015-03-24 21:05:32'
p104
sg24
S'../views/GTiff/clim.he8550.bio12.tif'
p105
sg26
S'85'
p106
sg28
S'6175'
p107
sg30
S'clim.he8550.bio12.tif'
p108
sg32
g33
sg34
g35
sg36
S'Annual Precipitation HE RCP85 2050'
p109
sg38
S'clim.he8550.bio12'
p110
sg40
g41
sg42
S'he8550'
p111
sg44
S'2050'
p112
ssS'bio14'
p113
(dp114
g8
S'clim'
p115
sg10
I4326
sg11
S'yes'
p116
sg13
S'he8550.bio14'
p117
sg15
I74
sg16
S'bio14'
p118
sg18
S'Precipitation of Driest Month'
p119
sg20
S'climate'
p120
sg22
S'2015-03-24 21:05:32'
p121
sg24
S'../views/GTiff/clim.he8550.bio14.tif'
p122
sg26
S'85'
p123
sg28
S'6185'
p124
sg30
S'clim.he8550.bio14.tif'
p125
sg32
g33
sg34
g35
sg36
S'Precipitation of Driest Month HE RCP85 2050'
p126
sg38
S'clim.he8550.bio14'
p127
sg40
g41
sg42
S'he8550'
p128
sg44
S'2050'
p129
ssS'bio10'
p130
(dp131
g8
S'clim'
p132
sg10
I4326
sg11
S'yes'
p133
sg13
S'he8550.bio10'
p134
sg15
I326
sg16
S'bio10'
p135
sg18
S'Mean Temperature of Warmest Quarter'
p136
sg20
S'climate'
p137
sg22
S'2015-03-24 21:05:32'
p138
sg24
S'../views/GTiff/clim.he8550.bio10.tif'
p139
sg26
S'85'
p140
sg28
S'6169'
p141
sg30
S'clim.he8550.bio10.tif'
p142
sg32
g33
sg34
g35
sg36
S'Mean Temperature of Warmest Quarter HE RCP85 2050'
p143
sg38
S'clim.he8550.bio10'
p144
sg40
g41
sg42
S'he8550'
p145
sg44
S'2050'
p146
ssS'bio06'
p147
(dp148
g8
S'clim'
p149
sg10
I4326
sg11
S'yes'
p150
sg13
S'he8550.bio06'
p151
sg15
I224
sg16
S'bio06'
p152
sg18
S'Min Temperature of Coldest Month'
p153
sg20
S'climate'
p154
sg22
S'2015-03-24 21:05:32'
p155
sg24
S'../views/GTiff/clim.he8550.bio06.tif'
p156
sg26
S'85'
p157
sg28
S'6177'
p158
sg30
S'clim.he8550.bio06.tif'
p159
sg32
g33
sg34
g35
sg36
S'Min Temperature of Coldest Month HE RCP85 2050'
p160
sg38
S'clim.he8550.bio06'
p161
sg40
g41
sg42
S'he8550'
p162
sg44
S'2050'
p163
ssS'bio05'
p164
(dp165
g8
S'clim'
p166
sg10
I4326
sg11
S'yes'
p167
sg13
S'he8550.bio05'
p168
sg15
I341
sg16
S'bio05'
p169
sg18
S'Max Temperature of Warmest Month'
p170
sg20
S'climate'
p171
sg22
S'2015-03-24 21:05:32'
p172
sg24
S'../views/GTiff/clim.he8550.bio05.tif'
p173
sg26
S'85'
p174
sg28
S'6178'
p175
sg30
S'clim.he8550.bio05.tif'
p176
sg32
g33
sg34
g35
sg36
S'Max Temperature of Warmest Month HE RCP85 2050'
p177
sg38
S'clim.he8550.bio05'
p178
sg40
g41
sg42
S'he8550'
p179
sg44
S'2050'
p180
ssS'bio13'
p181
(dp182
g8
S'clim'
p183
sg10
I4326
sg11
S'yes'
p184
sg13
S'he8550.bio13'
p185
sg15
I143
sg16
S'bio13'
p186
sg18
S'Precipitation of Wettest Month'
p187
sg20
S'climate'
p188
sg22
S'2015-03-24 21:05:32'
p189
sg24
S'../views/GTiff/clim.he8550.bio13.tif'
p190
sg26
S'85'
p191
sg28
S'6171'
p192
sg30
S'clim.he8550.bio13.tif'
p193
sg32
g33
sg34
g35
sg36
S'Precipitation of Wettest Month HE RCP85 2050'
p194
sg38
S'clim.he8550.bio13'
p195
sg40
g41
sg42
S'he8550'
p196
sg44
S'2050'
p197
ssS'bio03'
p198
(dp199
g8
S'clim'
p200
sg10
I4326
sg11
S'yes'
p201
sg13
S'he8550.bio03'
p202
sg15
I107
sg16
S'bio03'
p203
sg18
S'Isothermality (BIO2/BIO7) (* 100)'
p204
sg20
S'climate'
p205
sg22
S'2015-03-24 21:05:32'
p206
sg24
S'../views/GTiff/clim.he8550.bio03.tif'
p207
sg26
S'85'
p208
sg28
S'6180'
p209
sg30
S'clim.he8550.bio03.tif'
p210
sg32
g33
sg34
g35
sg36
S'Isothermality (BIO2/BIO7) (* 100) HE RCP85 2050'
p211
sg38
S'clim.he8550.bio03'
p212
sg40
g41
sg42
S'he8550'
p213
sg44
S'2050'
p214
ssS'bio15'
p215
(dp216
g8
S'clim'
p217
sg10
I4326
sg11
S'yes'
p218
sg13
S'he8550.bio15'
p219
sg15
I342
sg16
S'bio15'
p220
sg18
S'Precipitation Seasonality (Coefficient of Variation)'
p221
sg20
S'climate'
p222
sg22
S'2015-03-24 21:05:32'
p223
sg24
S'../views/GTiff/clim.he8550.bio15.tif'
p224
sg26
S'85'
p225
sg28
S'6174'
p226
sg30
S'clim.he8550.bio15.tif'
p227
sg32
g33
sg34
g35
sg36
S'Precipitation Seasonality (Coefficient of Variation) HE RCP85 2050'
p228
sg38
S'clim.he8550.bio15'
p229
sg40
g41
sg42
S'he8550'
p230
sg44
S'2050'
p231
ssS'bio16'
p232
(dp233
g8
S'clim'
p234
sg10
I4326
sg11
S'yes'
p235
sg13
S'he8550.bio16'
p236
sg15
I254
sg16
S'bio16'
p237
sg18
S'Precipitation of Wettest Quarter'
p238
sg20
S'climate'
p239
sg22
S'2015-03-24 21:05:32'
p240
sg24
S'../views/GTiff/clim.he8550.bio16.tif'
p241
sg26
S'85'
p242
sg28
S'6173'
p243
sg30
S'clim.he8550.bio16.tif'
p244
sg32
g33
sg34
g35
sg36
S'Precipitation of Wettest Quarter HE RCP85 2050'
p245
sg38
S'clim.he8550.bio16'
p246
sg40
g41
sg42
S'he8550'
p247
sg44
S'2050'
p248
ssS'bio17'
p249
(dp250
g8
S'clim'
p251
sg10
I4326
sg11
S'yes'
p252
sg13
S'he8550.bio17'
p253
sg15
I225
sg16
S'bio17'
p254
sg18
S'Precipitation of Driest Quarter'
p255
sg20
S'climate'
p256
sg22
S'2015-03-24 21:05:32'
p257
sg24
S'../views/GTiff/clim.he8550.bio17.tif'
p258
sg26
S'85'
p259
sg28
S'6183'
p260
sg30
S'clim.he8550.bio17.tif'
p261
sg32
g33
sg34
g35
sg36
S'Precipitation of Driest Quarter HE RCP85 2050'
p262
sg38
S'clim.he8550.bio17'
p263
sg40
g41
sg42
S'he8550'
p264
sg44
S'2050'
p265
ssS'bio18'
p266
(dp267
g8
S'clim'
p268
sg10
I4326
sg11
S'yes'
p269
sg13
S'he8550.bio18'
p270
sg15
I120
sg16
S'bio18'
p271
sg18
S'Precipitation of Warmest Quarter'
p272
sg20
S'climate'
p273
sg22
S'2015-03-24 21:05:32'
p274
sg24
S'../views/GTiff/clim.he8550.bio18.tif'
p275
sg26
S'85'
p276
sg28
S'6184'
p277
sg30
S'clim.he8550.bio18.tif'
p278
sg32
g33
sg34
g35
sg36
S'Precipitation of Warmest Quarter HE RCP85 2050'
p279
sg38
S'clim.he8550.bio18'
p280
sg40
g41
sg42
S'he8550'
p281
sg44
S'2050'
p282
ssS'bio19'
p283
(dp284
g8
S'clim'
p285
sg10
I4326
sg11
S'yes'
p286
sg13
S'he8550.bio19'
p287
sg15
I137
sg16
S'bio19'
p288
sg18
S'Precipitation of Coldest Quarter'
p289
sg20
S'climate'
p290
sg22
S'2015-03-24 21:05:32'
p291
sg24
S'../views/GTiff/clim.he8550.bio19.tif'
p292
sg26
S'85'
p293
sg28
S'6170'
p294
sg30
S'clim.he8550.bio19.tif'
p295
sg32
g33
sg34
g35
sg36
S'Precipitation of Coldest Quarter HE RCP85 2050'
p296
sg38
S'clim.he8550.bio19'
p297
sg40
g41
sg42
S'he8550'
p298
sg44
S'2050'
p299
ssS'bio08'
p300
(dp301
g8
S'clim'
p302
sg10
I4326
sg11
S'yes'
p303
sg13
S'he8550.bio08'
p304
sg15
I235
sg16
S'bio08'
p305
sg18
S'Mean Temperature of Wettest Quarter'
p306
sg20
S'climate'
p307
sg22
S'2015-03-24 21:05:32'
p308
sg24
S'../views/GTiff/clim.he8550.bio08.tif'
p309
sg26
S'85'
p310
sg28
S'6187'
p311
sg30
S'clim.he8550.bio08.tif'
p312
sg32
g33
sg34
g35
sg36
S'Mean Temperature of Wettest Quarter HE RCP85 2050'
p313
sg38
S'clim.he8550.bio08'
p314
sg40
g41
sg42
S'he8550'
p315
sg44
S'2050'
p316
ssS'bio04'
p317
(dp318
g8
S'clim'
p319
sg10
I4326
sg11
S'yes'
p320
sg13
S'he8550.bio04'
p321
sg15
I165
sg16
S'bio04'
p322
sg18
S'Temperature Seasonality (standard deviation *100)'
p323
sg20
S'climate'
p324
sg22
S'2015-03-24 21:05:32'
p325
sg24
S'../views/GTiff/clim.he8550.bio04.tif'
p326
sg26
S'85'
p327
sg28
S'6179'
p328
sg30
S'clim.he8550.bio04.tif'
p329
sg32
g33
sg34
g35
sg36
S'Temperature Seasonality (standard deviation *100) HE RCP85 2050'
p330
sg38
S'clim.he8550.bio04'
p331
sg40
g41
sg42
S'he8550'
p332
sg44
S'2050'
p333
ssS'bio02'
p334
(dp335
g8
S'clim'
p336
sg10
I4326
sg11
S'yes'
p337
sg13
S'he8550.bio02'
p338
sg15
I101
sg16
S'bio02'
p339
sg18
S'Mean Diurnal Range (Mean of monthly (max temp - min temp))'
p340
sg20
S'climate'
p341
sg22
S'2015-03-24 21:05:32'
p342
sg24
S'../views/GTiff/clim.he8550.bio02.tif'
p343
sg26
S'85'
p344
sg28
S'6181'
p345
sg30
S'clim.he8550.bio02.tif'
p346
sg32
g33
sg34
g35
sg36
S'Mean Diurnal Range (Mean of monthly (max temp - min temp)) HE RCP85 2050'
p347
sg38
S'clim.he8550.bio02'
p348
sg40
g41
sg42
S'he8550'
p349
sg44
S'2050'
p350
sssS'he2670'
p351
(dp352
S'bio07'
p353
(dp354
g8
S'clim'
p355
sg10
I4326
sg11
S'yes'
p356
sg13
S'he2670.bio07'
p357
sg15
I86
sg16
S'bio07'
p358
sg18
S'Temperature Annual Range (BIO5-BIO6)'
p359
sg20
S'climate'
p360
sg22
S'2015-03-24 21:05:32'
p361
sg24
S'../views/GTiff/clim.he2670.bio07.tif'
p362
sg26
S'26'
p363
sg28
S'6154'
p364
sg30
S'clim.he2670.bio07.tif'
p365
sg32
g33
sg34
g35
sg36
S'Temperature Annual Range (BIO5-BIO6) HE RCP26 2070'
p366
sg38
S'clim.he2670.bio07'
p367
sg40
g41
sg42
S'he2670'
p368
sg44
S'2070'
p369
ssS'bio16'
p370
(dp371
g8
S'clim'
p372
sg10
I4326
sg11
S'yes'
p373
sg13
S'he2670.bio16'
p374
sg15
I285
sg16
S'bio16'
p375
sg18
S'Precipitation of Wettest Quarter'
p376
sg20
S'climate'
p377
sg22
S'2015-03-24 21:05:32'
p378
sg24
S'../views/GTiff/clim.he2670.bio16.tif'
p379
sg26
S'26'
p380
sg28
S'6151'
p381
sg30
S'clim.he2670.bio16.tif'
p382
sg32
g33
sg34
g35
sg36
S'Precipitation of Wettest Quarter HE RCP26 2070'
p383
sg38
S'clim.he2670.bio16'
p384
sg40
g41
sg42
S'he2670'
p385
sg44
S'2070'
p386
ssS'bio06'
p387
(dp388
g8
S'clim'
p389
sg10
I4326
sg11
S'yes'
p390
sg13
S'he2670.bio06'
p391
sg15
I330
sg16
S'bio06'
p392
sg18
S'Min Temperature of Coldest Month'
p393
sg20
S'climate'
p394
sg22
S'2015-03-24 21:05:32'
p395
sg24
S'../views/GTiff/clim.he2670.bio06.tif'
p396
sg26
S'26'
p397
sg28
S'6155'
p398
sg30
S'clim.he2670.bio06.tif'
p399
sg32
g33
sg34
g35
sg36
S'Min Temperature of Coldest Month HE RCP26 2070'
p400
sg38
S'clim.he2670.bio06'
p401
sg40
g41
sg42
S'he2670'
p402
sg44
S'2070'
p403
ssS'bio09'
p404
(dp405
g8
S'clim'
p406
sg10
I4326
sg11
S'yes'
p407
sg13
S'he2670.bio09'
p408
sg15
I11
sg16
S'bio09'
p409
sg18
S'Mean Temperature of Driest Quarter'
p410
sg20
S'climate'
p411
sg22
S'2015-03-24 21:05:32'
p412
sg24
S'../views/GTiff/clim.he2670.bio09.tif'
p413
sg26
S'26'
p414
sg28
S'6164'
p415
sg30
S'clim.he2670.bio09.tif'
p416
sg32
g33
sg34
g35
sg36
S'Mean Temperature of Driest Quarter HE RCP26 2070'
p417
sg38
S'clim.he2670.bio09'
p418
sg40
g41
sg42
g351
sg44
S'2070'
p419
ssS'bio05'
p420
(dp421
g8
S'clim'
p422
sg10
I4326
sg11
S'yes'
p423
sg13
S'he2670.bio05'
p424
sg15
I245
sg16
S'bio05'
p425
sg18
S'Max Temperature of Warmest Month'
p426
sg20
S'climate'
p427
sg22
S'2015-03-24 21:05:32'
p428
sg24
S'../views/GTiff/clim.he2670.bio05.tif'
p429
sg26
S'26'
p430
sg28
S'6156'
p431
sg30
S'clim.he2670.bio05.tif'
p432
sg32
g33
sg34
g35
sg36
S'Max Temperature of Warmest Month HE RCP26 2070'
p433
sg38
S'clim.he2670.bio05'
p434
sg40
g41
sg42
S'he2670'
p435
sg44
S'2070'
p436
ssS'bio10'
p437
(dp438
g8
S'clim'
p439
sg10
I4326
sg11
S'yes'
p440
sg13
S'he2670.bio10'
p441
sg15
I110
sg16
S'bio10'
p442
sg18
S'Mean Temperature of Warmest Quarter'
p443
sg20
S'climate'
p444
sg22
S'2015-03-24 21:05:32'
p445
sg24
S'../views/GTiff/clim.he2670.bio10.tif'
p446
sg26
S'26'
p447
sg28
S'6147'
p448
sg30
S'clim.he2670.bio10.tif'
p449
sg32
g33
sg34
g35
sg36
S'Mean Temperature of Warmest Quarter HE RCP26 2070'
p450
sg38
S'clim.he2670.bio10'
p451
sg40
g41
sg42
S'he2670'
p452
sg44
S'2070'
p453
ssS'bio11'
p454
(dp455
g8
S'clim'
p456
sg10
I4326
sg11
S'yes'
p457
sg13
S'he2670.bio11'
p458
sg15
I337
sg16
S'bio11'
p459
sg18
S'Mean Temperature of Coldest Quarter'
p460
sg20
S'climate'
p461
sg22
S'2015-03-24 21:05:32'
p462
sg24
S'../views/GTiff/clim.he2670.bio11.tif'
p463
sg26
S'26'
p464
sg28
S'6150'
p465
sg30
S'clim.he2670.bio11.tif'
p466
sg32
g33
sg34
g35
sg36
S'Mean Temperature of Coldest Quarter HE RCP26 2070'
p467
sg38
S'clim.he2670.bio11'
p468
sg40
g41
sg42
S'he2670'
p469
sg44
S'2070'
p470
ssS'bio12'
p471
(dp472
g8
S'clim'
p473
sg10
I4326
sg11
S'yes'
p474
sg13
S'he2670.bio12'
p475
sg15
I280
sg16
S'bio12'
p476
sg18
S'Annual Precipitation'
p477
sg20
S'climate'
p478
sg22
S'2015-03-24 21:05:32'
p479
sg24
S'../views/GTiff/clim.he2670.bio12.tif'
p480
sg26
S'26'
p481
sg28
S'6153'
p482
sg30
S'clim.he2670.bio12.tif'
p483
sg32
g33
sg34
g35
sg36
S'Annual Precipitation HE RCP26 2070'
p484
sg38
S'clim.he2670.bio12'
p485
sg40
g41
sg42
S'he2670'
p486
sg44
S'2070'
p487
ssS'bio13'
p488
(dp489
g8
S'clim'
p490
sg10
I4326
sg11
S'yes'
p491
sg13
S'he2670.bio13'
p492
sg15
I231
sg16
S'bio13'
p493
sg18
S'Precipitation of Wettest Month'
p494
sg20
S'climate'
p495
sg22
S'2015-03-24 21:05:32'
p496
sg24
S'../views/GTiff/clim.he2670.bio13.tif'
p497
sg26
S'26'
p498
sg28
S'6149'
p499
sg30
S'clim.he2670.bio13.tif'
p500
sg32
g33
sg34
g35
sg36
S'Precipitation of Wettest Month HE RCP26 2070'
p501
sg38
S'clim.he2670.bio13'
p502
sg40
g41
sg42
S'he2670'
p503
sg44
S'2070'
p504
ssS'bio14'
p505
(dp506
g8
S'clim'
p507
sg10
I4326
sg11
S'yes'
p508
sg13
S'he2670.bio14'
p509
sg15
I71
sg16
S'bio14'
p510
sg18
S'Precipitation of Driest Month'
p511
sg20
S'climate'
p512
sg22
S'2015-03-24 21:05:32'
p513
sg24
S'../views/GTiff/clim.he2670.bio14.tif'
p514
sg26
S'26'
p515
sg28
S'6163'
p516
sg30
S'clim.he2670.bio14.tif'
p517
sg32
g33
sg34
g35
sg36
S'Precipitation of Driest Month HE RCP26 2070'
p518
sg38
S'clim.he2670.bio14'
p519
sg40
g41
sg42
S'he2670'
p520
sg44
S'2070'
p521
ssS'bio15'
p522
(dp523
g8
S'clim'
p524
sg10
I4326
sg11
S'yes'
p525
sg13
S'he2670.bio15'
p526
sg15
I313
sg16
S'bio15'
p527
sg18
S'Precipitation Seasonality (Coefficient of Variation)'
p528
sg20
S'climate'
p529
sg22
S'2015-03-24 21:05:32'
p530
sg24
S'../views/GTiff/clim.he2670.bio15.tif'
p531
sg26
S'26'
p532
sg28
S'6152'
p533
sg30
S'clim.he2670.bio15.tif'
p534
sg32
g33
sg34
g35
sg36
S'Precipitation Seasonality (Coefficient of Variation) HE RCP26 2070'
p535
sg38
S'clim.he2670.bio15'
p536
sg40
g41
sg42
S'he2670'
p537
sg44
S'2070'
p538
ssS'bio01'
p539
(dp540
g8
S'clim'
p541
sg10
I4326
sg11
S'yes'
p542
sg13
S'he2670.bio01'
p543
sg15
I299
sg16
S'bio01'
p544
sg18
S'Annual Mean Temperature'
p545
sg20
S'climate'
p546
sg22
S'2015-03-24 21:05:32'
p547
sg24
S'../views/GTiff/clim.he2670.bio01.tif'
p548
sg26
S'26'
p549
sg28
S'6160'
p550
sg30
S'clim.he2670.bio01.tif'
p551
sg32
g33
sg34
g35
sg36
S'Annual Mean Temperature HE RCP26 2070'
p552
sg38
S'clim.he2670.bio01'
p553
sg40
g41
sg42
S'he2670'
p554
sg44
S'2070'
p555
ssS'bio17'
p556
(dp557
g8
S'clim'
p558
sg10
I4326
sg11
S'yes'
p559
sg13
S'he2670.bio17'
p560
sg15
I310
sg16
S'bio17'
p561
sg18
S'Precipitation of Driest Quarter'
p562
sg20
S'climate'
p563
sg22
S'2015-03-24 21:05:32'
p564
sg24
S'../views/GTiff/clim.he2670.bio17.tif'
p565
sg26
S'26'
p566
sg28
S'6161'
p567
sg30
S'clim.he2670.bio17.tif'
p568
sg32
g33
sg34
g35
sg36
S'Precipitation of Driest Quarter HE RCP26 2070'
p569
sg38
S'clim.he2670.bio17'
p570
sg40
g41
sg42
S'he2670'
p571
sg44
S'2070'
p572
ssS'bio18'
p573
(dp574
g8
S'clim'
p575
sg10
I4326
sg11
S'yes'
p576
sg13
S'he2670.bio18'
p577
sg15
I292
sg16
S'bio18'
p578
sg18
S'Precipitation of Warmest Quarter'
p579
sg20
S'climate'
p580
sg22
S'2015-03-24 21:05:32'
p581
sg24
S'../views/GTiff/clim.he2670.bio18.tif'
p582
sg26
S'26'
p583
sg28
S'6162'
p584
sg30
S'clim.he2670.bio18.tif'
p585
sg32
g33
sg34
g35
sg36
S'Precipitation of Warmest Quarter HE RCP26 2070'
p586
sg38
S'clim.he2670.bio18'
p587
sg40
g41
sg42
S'he2670'
p588
sg44
S'2070'
p589
ssS'bio19'
p590
(dp591
g8
S'clim'
p592
sg10
I4326
sg11
S'yes'
p593
sg13
S'he2670.bio19'
p594
sg15
I103
sg16
S'bio19'
p595
sg18
S'Precipitation of Coldest Quarter'
p596
sg20
S'climate'
p597
sg22
S'2015-03-24 21:05:32'
p598
sg24
S'../views/GTiff/clim.he2670.bio19.tif'
p599
sg26
S'26'
p600
sg28
S'6148'
p601
sg30
S'clim.he2670.bio19.tif'
p602
sg32
g33
sg34
g35
sg36
S'Precipitation of Coldest Quarter HE RCP26 2070'
p603
sg38
S'clim.he2670.bio19'
p604
sg40
g41
sg42
S'he2670'
p605
sg44
S'2070'
p606
ssS'bio08'
p607
(dp608
g8
S'clim'
p609
sg10
I4326
sg11
S'yes'
p610
sg13
S'he2670.bio08'
p611
sg15
I113
sg16
S'bio08'
p612
sg18
S'Mean Temperature of Wettest Quarter'
p613
sg20
S'climate'
p614
sg22
S'2015-03-24 21:05:32'
p615
sg24
S'../views/GTiff/clim.he2670.bio08.tif'
p616
sg26
S'26'
p617
sg28
S'6165'
p618
sg30
S'clim.he2670.bio08.tif'
p619
sg32
g33
sg34
g35
sg36
S'Mean Temperature of Wettest Quarter HE RCP26 2070'
p620
sg38
S'clim.he2670.bio08'
p621
sg40
g41
sg42
S'he2670'
p622
sg44
S'2070'
p623
ssS'bio03'
p624
(dp625
g8
S'clim'
p626
sg10
I4326
sg11
S'yes'
p627
sg13
S'he2670.bio03'
p628
sg15
I127
sg16
S'bio03'
p629
sg18
S'Isothermality (BIO2/BIO7) (* 100)'
p630
sg20
S'climate'
p631
sg22
S'2015-03-24 21:05:32'
p632
sg24
S'../views/GTiff/clim.he2670.bio03.tif'
p633
sg26
S'26'
p634
sg28
S'6158'
p635
sg30
S'clim.he2670.bio03.tif'
p636
sg32
g33
sg34
g35
sg36
S'Isothermality (BIO2/BIO7) (* 100) HE RCP26 2070'
p637
sg38
S'clim.he2670.bio03'
p638
sg40
g41
sg42
S'he2670'
p639
sg44
S'2070'
p640
ssS'bio04'
p641
(dp642
g8
S'clim'
p643
sg10
I4326
sg11
S'yes'
p644
sg13
S'he2670.bio04'
p645
sg15
I333
sg16
S'bio04'
p646
sg18
S'Temperature Seasonality (standard deviation *100)'
p647
sg20
S'climate'
p648
sg22
S'2015-03-24 21:05:32'
p649
sg24
S'../views/GTiff/clim.he2670.bio04.tif'
p650
sg26
S'26'
p651
sg28
S'6157'
p652
sg30
S'clim.he2670.bio04.tif'
p653
sg32
g33
sg34
g35
sg36
S'Temperature Seasonality (standard deviation *100) HE RCP26 2070'
p654
sg38
S'clim.he2670.bio04'
p655
sg40
g41
sg42
S'he2670'
p656
sg44
S'2070'
p657
ssS'bio02'
p658
(dp659
g8
S'clim'
p660
sg10
I4326
sg11
S'yes'
p661
sg13
S'he2670.bio02'
p662
sg15
I58
sg16
S'bio02'
p663
sg18
S'Mean Diurnal Range (Mean of monthly (max temp - min temp))'
p664
sg20
S'climate'
p665
sg22
S'2015-03-24 21:05:32'
p666
sg24
S'../views/GTiff/clim.he2670.bio02.tif'
p667
sg26
S'26'
p668
sg28
S'6159'
p669
sg30
S'clim.he2670.bio02.tif'
p670
sg32
g33
sg34
g35
sg36
S'Mean Diurnal Range (Mean of monthly (max temp - min temp)) HE RCP26 2070'
p671
sg38
S'clim.he2670.bio02'
p672
sg40
g41
sg42
S'he2670'
p673
sg44
S'2070'
p674
sssS'ac4550'
p675
(dp676
S'bio07'
p677
(dp678
g8
S'clim'
p679
sg10
I4326
sg11
S'yes'
p680
sg13
S'ac4550.bio07'
p681
sg15
I228
sg16
S'bio07'
p682
sg18
S'Temperature Annual Range (BIO5-BIO6)'
p683
sg20
S'climate'
p684
sg22
S'2015-03-24 21:05:32'
p685
sg24
S'../views/GTiff/clim.ac4550.bio07.tif'
p686
sg26
S'45'
p687
sg28
S'6333'
p688
sg30
S'clim.ac4550.bio07.tif'
p689
sg32
g33
sg34
g35
sg36
S'Temperature Annual Range (BIO5-BIO6) AC RCP45 2050'
p690
sg38
S'clim.ac4550.bio07'
p691
sg40
g41
sg42
S'ac4550'
p692
sg44
S'2050'
p693
ssS'bio01'
p694
(dp695
g8
S'clim'
p696
sg10
I4326
sg11
S'yes'
p697
sg13
S'ac4550.bio01'
p698
sg15
I331
sg16
S'bio01'
p699
sg18
S'Annual Mean Temperature'
p700
sg20
S'climate'
p701
sg22
S'2015-03-24 21:05:32'
p702
sg24
S'../views/GTiff/clim.ac4550.bio01.tif'
p703
sg26
S'45'
p704
sg28
S'6339'
p705
sg30
S'clim.ac4550.bio01.tif'
p706
sg32
g33
sg34
g35
sg36
S'Annual Mean Temperature AC RCP45 2050'
p707
sg38
S'clim.ac4550.bio01'
p708
sg40
g41
sg42
S'ac4550'
p709
sg44
S'2050'
p710
ssS'bio11'
p711
(dp712
g8
S'clim'
p713
sg10
I4326
sg11
S'yes'
p714
sg13
S'ac4550.bio11'
p715
sg15
I65
sg16
S'bio11'
p716
sg18
S'Mean Temperature of Coldest Quarter'
p717
sg20
S'climate'
p718
sg22
S'2015-03-24 21:05:32'
p719
sg24
S'../views/GTiff/clim.ac4550.bio11.tif'
p720
sg26
S'45'
p721
sg28
S'6329'
p722
sg30
S'clim.ac4550.bio11.tif'
p723
sg32
g33
sg34
g35
sg36
S'Mean Temperature of Coldest Quarter AC RCP45 2050'
p724
sg38
S'clim.ac4550.bio11'
p725
sg40
g41
sg42
S'ac4550'
p726
sg44
S'2050'
p727
ssS'bio09'
p728
(dp729
g8
S'clim'
p730
sg10
I4326
sg11
S'yes'
p731
sg13
S'ac4550.bio09'
p732
sg15
I156
sg16
S'bio09'
p733
sg18
S'Mean Temperature of Driest Quarter'
p734
sg20
S'climate'
p735
sg22
S'2015-03-24 21:05:32'
p736
sg24
S'../views/GTiff/clim.ac4550.bio09.tif'
p737
sg26
S'45'
p738
sg28
S'6343'
p739
sg30
S'clim.ac4550.bio09.tif'
p740
sg32
g33
sg34
g35
sg36
S'Mean Temperature of Driest Quarter AC RCP45 2050'
p741
sg38
S'clim.ac4550.bio09'
p742
sg40
g41
sg42
S'ac4550'
p743
sg44
S'2050'
p744
ssS'bio05'
p745
(dp746
g8
S'clim'
p747
sg10
I4326
sg11
S'yes'
p748
sg13
S'ac4550.bio05'
p749
sg15
I16
sg16
S'bio05'
p750
sg18
S'Max Temperature of Warmest Month'
p751
sg20
S'climate'
p752
sg22
S'2015-03-24 21:05:32'
p753
sg24
S'../views/GTiff/clim.ac4550.bio05.tif'
p754
sg26
S'45'
p755
sg28
S'6335'
p756
sg30
S'clim.ac4550.bio05.tif'
p757
sg32
g33
sg34
g35
sg36
S'Max Temperature of Warmest Month AC RCP45 2050'
p758
sg38
S'clim.ac4550.bio05'
p759
sg40
g41
sg42
g675
sg44
S'2050'
p760
ssS'bio10'
p761
(dp762
g8
S'clim'
p763
sg10
I4326
sg11
S'yes'
p764
sg13
S'ac4550.bio10'
p765
sg15
I242
sg16
S'bio10'
p766
sg18
S'Mean Temperature of Warmest Quarter'
p767
sg20
S'climate'
p768
sg22
S'2015-03-24 21:05:32'
p769
sg24
S'../views/GTiff/clim.ac4550.bio10.tif'
p770
sg26
S'45'
p771
sg28
S'6326'
p772
sg30
S'clim.ac4550.bio10.tif'
p773
sg32
g33
sg34
g35
sg36
S'Mean Temperature of Warmest Quarter AC RCP45 2050'
p774
sg38
S'clim.ac4550.bio10'
p775
sg40
g41
sg42
S'ac4550'
p776
sg44
S'2050'
p777
ssS'bio06'
p778
(dp779
g8
S'clim'
p780
sg10
I4326
sg11
S'yes'
p781
sg13
S'ac4550.bio06'
p782
sg15
I307
sg16
S'bio06'
p783
sg18
S'Min Temperature of Coldest Month'
p784
sg20
S'climate'
p785
sg22
S'2015-03-24 21:05:32'
p786
sg24
S'../views/GTiff/clim.ac4550.bio06.tif'
p787
sg26
S'45'
p788
sg28
S'6334'
p789
sg30
S'clim.ac4550.bio06.tif'
p790
sg32
g33
sg34
g35
sg36
S'Min Temperature of Coldest Month AC RCP45 2050'
p791
sg38
S'clim.ac4550.bio06'
p792
sg40
g41
sg42
S'ac4550'
p793
sg44
S'2050'
p794
ssS'bio12'
p795
(dp796
g8
S'clim'
p797
sg10
I4326
sg11
S'yes'
p798
sg13
S'ac4550.bio12'
p799
sg15
I186
sg16
S'bio12'
p800
sg18
S'Annual Precipitation'
p801
sg20
S'climate'
p802
sg22
S'2015-03-24 21:05:32'
p803
sg24
S'../views/GTiff/clim.ac4550.bio12.tif'
p804
sg26
S'45'
p805
sg28
S'6332'
p806
sg30
S'clim.ac4550.bio12.tif'
p807
sg32
g33
sg34
g35
sg36
S'Annual Precipitation AC RCP45 2050'
p808
sg38
S'clim.ac4550.bio12'
p809
sg40
g41
sg42
S'ac4550'
p810
sg44
S'2050'
p811
ssS'bio13'
p812
(dp813
g8
S'clim'
p814
sg10
I4326
sg11
S'yes'
p815
sg13
S'ac4550.bio13'
p816
sg15
I240
sg16
S'bio13'
p817
sg18
S'Precipitation of Wettest Month'
p818
sg20
S'climate'
p819
sg22
S'2015-03-24 21:05:32'
p820
sg24
S'../views/GTiff/clim.ac4550.bio13.tif'
p821
sg26
S'45'
p822
sg28
S'6328'
p823
sg30
S'clim.ac4550.bio13.tif'
p824
sg32
g33
sg34
g35
sg36
S'Precipitation of Wettest Month AC RCP45 2050'
p825
sg38
S'clim.ac4550.bio13'
p826
sg40
g41
sg42
S'ac4550'
p827
sg44
S'2050'
p828
ssS'bio14'
p829
(dp830
g8
S'clim'
p831
sg10
I4326
sg11
S'yes'
p832
sg13
S'ac4550.bio14'
p833
sg15
I98
sg16
S'bio14'
p834
sg18
S'Precipitation of Driest Month'
p835
sg20
S'climate'
p836
sg22
S'2015-03-24 21:05:32'
p837
sg24
S'../views/GTiff/clim.ac4550.bio14.tif'
p838
sg26
S'45'
p839
sg28
S'6342'
p840
sg30
S'clim.ac4550.bio14.tif'
p841
sg32
g33
sg34
g35
sg36
S'Precipitation of Driest Month AC RCP45 2050'
p842
sg38
S'clim.ac4550.bio14'
p843
sg40
g41
sg42
S'ac4550'
p844
sg44
S'2050'
p845
ssS'bio15'
p846
(dp847
g8
S'clim'
p848
sg10
I4326
sg11
S'yes'
p849
sg13
S'ac4550.bio15'
p850
sg15
I68
sg16
S'bio15'
p851
sg18
S'Precipitation Seasonality (Coefficient of Variation)'
p852
sg20
S'climate'
p853
sg22
S'2015-03-24 21:05:32'
p854
sg24
S'../views/GTiff/clim.ac4550.bio15.tif'
p855
sg26
S'45'
p856
sg28
S'6331'
p857
sg30
S'clim.ac4550.bio15.tif'
p858
sg32
g33
sg34
g35
sg36
S'Precipitation Seasonality (Coefficient of Variation) AC RCP45 2050'
p859
sg38
S'clim.ac4550.bio15'
p860
sg40
g41
sg42
S'ac4550'
p861
sg44
S'2050'
p862
ssS'bio16'
p863
(dp864
g8
S'clim'
p865
sg10
I4326
sg11
S'yes'
p866
sg13
S'ac4550.bio16'
p867
sg15
I343
sg16
S'bio16'
p868
sg18
S'Precipitation of Wettest Quarter'
p869
sg20
S'climate'
p870
sg22
S'2015-03-24 21:05:32'
p871
sg24
S'../views/GTiff/clim.ac4550.bio16.tif'
p872
sg26
S'45'
p873
sg28
S'6330'
p874
sg30
S'clim.ac4550.bio16.tif'
p875
sg32
g33
sg34
g35
sg36
S'Precipitation of Wettest Quarter AC RCP45 2050'
p876
sg38
S'clim.ac4550.bio16'
p877
sg40
g41
sg42
S'ac4550'
p878
sg44
S'2050'
p879
ssS'bio17'
p880
(dp881
g8
S'clim'
p882
sg10
I4326
sg11
S'yes'
p883
sg13
S'ac4550.bio17'
p884
sg15
I160
sg16
S'bio17'
p885
sg18
S'Precipitation of Driest Quarter'
p886
sg20
S'climate'
p887
sg22
S'2015-03-24 21:05:32'
p888
sg24
S'../views/GTiff/clim.ac4550.bio17.tif'
p889
sg26
S'45'
p890
sg28
S'6340'
p891
sg30
S'clim.ac4550.bio17.tif'
p892
sg32
g33
sg34
g35
sg36
S'Precipitation of Driest Quarter AC RCP45 2050'
p893
sg38
S'clim.ac4550.bio17'
p894
sg40
g41
sg42
S'ac4550'
p895
sg44
S'2050'
p896
ssS'bio18'
p897
(dp898
g8
S'clim'
p899
sg10
I4326
sg11
S'yes'
p900
sg13
S'ac4550.bio18'
p901
sg15
I69
sg16
S'bio18'
p902
sg18
S'Precipitation of Warmest Quarter'
p903
sg20
S'climate'
p904
sg22
S'2015-03-24 21:05:32'
p905
sg24
S'../views/GTiff/clim.ac4550.bio18.tif'
p906
sg26
S'45'
p907
sg28
S'6341'
p908
sg30
S'clim.ac4550.bio18.tif'
p909
sg32
g33
sg34
g35
sg36
S'Precipitation of Warmest Quarter AC RCP45 2050'
p910
sg38
S'clim.ac4550.bio18'
p911
sg40
g41
sg42
S'ac4550'
p912
sg44
S'2050'
p913
ssS'bio19'
p914
(dp915
g8
S'clim'
p916
sg10
I4326
sg11
S'yes'
p917
sg13
S'ac4550.bio19'
p918
sg15
I175
sg16
S'bio19'
p919
sg18
S'Precipitation of Coldest Quarter'
p920
sg20
S'climate'
p921
sg22
S'2015-03-24 21:05:32'
p922
sg24
S'../views/GTiff/clim.ac4550.bio19.tif'
p923
sg26
S'45'
p924
sg28
S'6327'
p925
sg30
S'clim.ac4550.bio19.tif'
p926
sg32
g33
sg34
g35
sg36
S'Precipitation of Coldest Quarter AC RCP45 2050'
p927
sg38
S'clim.ac4550.bio19'
p928
sg40
g41
sg42
S'ac4550'
p929
sg44
S'2050'
p930
ssS'bio08'
p931
(dp932
g8
S'clim'
p933
sg10
I4326
sg11
S'yes'
p934
sg13
S'ac4550.bio08'
p935
sg15
I195
sg16
S'bio08'
p936
sg18
S'Mean Temperature of Wettest Quarter'
p937
sg20
S'climate'
p938
sg22
S'2015-03-24 21:05:32'
p939
sg24
S'../views/GTiff/clim.ac4550.bio08.tif'
p940
sg26
S'45'
p941
sg28
S'6344'
p942
sg30
S'clim.ac4550.bio08.tif'
p943
sg32
g33
sg34
g35
sg36
S'Mean Temperature of Wettest Quarter AC RCP45 2050'
p944
sg38
S'clim.ac4550.bio08'
p945
sg40
g41
sg42
S'ac4550'
p946
sg44
S'2050'
p947
ssS'bio03'
p948
(dp949
g8
S'clim'
p950
sg10
I4326
sg11
S'yes'
p951
sg13
S'ac4550.bio03'
p952
sg15
I109
sg16
S'bio03'
p953
sg18
S'Isothermality (BIO2/BIO7) (* 100)'
p954
sg20
S'climate'
p955
sg22
S'2015-03-24 21:05:32'
p956
sg24
S'../views/GTiff/clim.ac4550.bio03.tif'
p957
sg26
S'45'
p958
sg28
S'6337'
p959
sg30
S'clim.ac4550.bio03.tif'
p960
sg32
g33
sg34
g35
sg36
S'Isothermality (BIO2/BIO7) (* 100) AC RCP45 2050'
p961
sg38
S'clim.ac4550.bio03'
p962
sg40
g41
sg42
S'ac4550'
p963
sg44
S'2050'
p964
ssS'bio04'
p965
(dp966
g8
S'clim'
p967
sg10
I4326
sg11
S'yes'
p968
sg13
S'ac4550.bio04'
p969
sg15
I104
sg16
S'bio04'
p970
sg18
S'Temperature Seasonality (standard deviation *100)'
p971
sg20
S'climate'
p972
sg22
S'2015-03-24 21:05:32'
p973
sg24
S'../views/GTiff/clim.ac4550.bio04.tif'
p974
sg26
S'45'
p975
sg28
S'6336'
p976
sg30
S'clim.ac4550.bio04.tif'
p977
sg32
g33
sg34
g35
sg36
S'Temperature Seasonality (standard deviation *100) AC RCP45 2050'
p978
sg38
S'clim.ac4550.bio04'
p979
sg40
g41
sg42
S'ac4550'
p980
sg44
S'2050'
p981
ssS'bio02'
p982
(dp983
g8
S'clim'
p984
sg10
I4326
sg11
S'yes'
p985
sg13
S'ac4550.bio02'
p986
sg15
I269
sg16
S'bio02'
p987
sg18
S'Mean Diurnal Range (Mean of monthly (max temp - min temp))'
p988
sg20
S'climate'
p989
sg22
S'2015-03-24 21:05:32'
p990
sg24
S'../views/GTiff/clim.ac4550.bio02.tif'
p991
sg26
S'45'
p992
sg28
S'6338'
p993
sg30
S'clim.ac4550.bio02.tif'
p994
sg32
g33
sg34
g35
sg36
S'Mean Diurnal Range (Mean of monthly (max temp - min temp)) AC RCP45 2050'
p995
sg38
S'clim.ac4550.bio02'
p996
sg40
g41
sg42
S'ac4550'
p997
sg44
S'2050'
p998
sssS'he8570'
p999
(dp1000
S'bio10'
p1001
(dp1002
g8
S'clim'
p1003
sg10
I4326
sg11
S'yes'
p1004
sg13
S'he8570.bio10'
p1005
sg15
I226
sg16
S'bio10'
p1006
sg18
S'Mean Temperature of Warmest Quarter'
p1007
sg20
S'climate'
p1008
sg22
S'2015-03-24 21:05:32'
p1009
sg24
S'../views/GTiff/clim.he8570.bio10.tif'
p1010
sg26
S'85'
p1011
sg28
S'6207'
p1012
sg30
S'clim.he8570.bio10.tif'
p1013
sg32
g33
sg34
g35
sg36
S'Mean Temperature of Warmest Quarter HE RCP85 2070'
p1014
sg38
S'clim.he8570.bio10'
p1015
sg40
g41
sg42
S'he8570'
p1016
sg44
S'2070'
p1017
ssS'bio19'
p1018
(dp1019
g8
S'clim'
p1020
sg10
I4326
sg11
S'yes'
p1021
sg13
S'he8570.bio19'
p1022
sg15
I13
sg16
S'bio19'
p1023
sg18
S'Precipitation of Coldest Quarter'
p1024
sg20
S'climate'
p1025
sg22
S'2015-03-24 21:05:32'
p1026
sg24
S'../views/GTiff/clim.he8570.bio19.tif'
p1027
sg26
S'85'
p1028
sg28
S'6208'
p1029
sg30
S'clim.he8570.bio19.tif'
p1030
sg32
g33
sg34
g35
sg36
S'Precipitation of Coldest Quarter HE RCP85 2070'
p1031
sg38
S'clim.he8570.bio19'
p1032
sg40
g41
sg42
S'he8570'
p1033
sg44
S'2070'
p1034
ssS'bio01'
p1035
(dp1036
g8
S'clim'
p1037
sg10
I4326
sg11
S'yes'
p1038
sg13
S'he8570.bio01'
p1039
sg15
I12
sg16
S'bio01'
p1040
sg18
S'Annual Mean Temperature'
p1041
sg20
S'climate'
p1042
sg22
S'2015-03-24 21:05:32'
p1043
sg24
S'../views/GTiff/clim.he8570.bio01.tif'
p1044
sg26
S'85'
p1045
sg28
S'6220'
p1046
sg30
S'clim.he8570.bio01.tif'
p1047
sg32
g33
sg34
g35
sg36
S'Annual Mean Temperature HE RCP85 2070'
p1048
sg38
S'clim.he8570.bio01'
p1049
sg40
g41
sg42
S'he8570'
p1050
sg44
S'2070'
p1051
ssS'bio11'
p1052
(dp1053
g8
S'clim'
p1054
sg10
I4326
sg11
S'yes'
p1055
sg13
S'he8570.bio11'
p1056
sg15
I319
sg16
S'bio11'
p1057
sg18
S'Mean Temperature of Coldest Quarter'
p1058
sg20
S'climate'
p1059
sg22
S'2015-03-24 21:05:32'
p1060
sg24
S'../views/GTiff/clim.he8570.bio11.tif'
p1061
sg26
S'85'
p1062
sg28
S'6210'
p1063
sg30
S'clim.he8570.bio11.tif'
p1064
sg32
g33
sg34
g35
sg36
S'Mean Temperature of Coldest Quarter HE RCP85 2070'
p1065
sg38
S'clim.he8570.bio11'
p1066
sg40
g41
sg42
S'he8570'
p1067
sg44
S'2070'
p1068
ssS'bio09'
p1069
(dp1070
g8
S'clim'
p1071
sg10
I4326
sg11
S'yes'
p1072
sg13
S'he8570.bio09'
p1073
sg15
I73
sg16
S'bio09'
p1074
sg18
S'Mean Temperature of Driest Quarter'
p1075
sg20
S'climate'
p1076
sg22
S'2015-03-24 21:05:32'
p1077
sg24
S'../views/GTiff/clim.he8570.bio09.tif'
p1078
sg26
S'85'
p1079
sg28
S'6224'
p1080
sg30
S'clim.he8570.bio09.tif'
p1081
sg32
g33
sg34
g35
sg36
S'Mean Temperature of Driest Quarter HE RCP85 2070'
p1082
sg38
S'clim.he8570.bio09'
p1083
sg40
g41
sg42
S'he8570'
p1084
sg44
S'2070'
p1085
ssS'bio05'
p1086
(dp1087
g8
S'clim'
p1088
sg10
I4326
sg11
S'yes'
p1089
sg13
S'he8570.bio05'
p1090
sg15
I54
sg16
S'bio05'
p1091
sg18
S'Max Temperature of Warmest Month'
p1092
sg20
S'climate'
p1093
sg22
S'2015-03-24 21:05:32'
p1094
sg24
S'../views/GTiff/clim.he8570.bio05.tif'
p1095
sg26
S'85'
p1096
sg28
S'6216'
p1097
sg30
S'clim.he8570.bio05.tif'
p1098
sg32
g33
sg34
g35
sg36
S'Max Temperature of Warmest Month HE RCP85 2070'
p1099
sg38
S'clim.he8570.bio05'
p1100
sg40
g41
sg42
S'he8570'
p1101
sg44
S'2070'
p1102
ssS'bio07'
p1103
(dp1104
g8
S'clim'
p1105
sg10
I4326
sg11
S'yes'
p1106
sg13
S'he8570.bio07'
p1107
sg15
I241
sg16
S'bio07'
p1108
sg18
S'Temperature Annual Range (BIO5-BIO6)'
p1109
sg20
S'climate'
p1110
sg22
S'2015-03-24 21:05:32'
p1111
sg24
S'../views/GTiff/clim.he8570.bio07.tif'
p1112
sg26
S'85'
p1113
sg28
S'6214'
p1114
sg30
S'clim.he8570.bio07.tif'
p1115
sg32
g33
sg34
g35
sg36
S'Temperature Annual Range (BIO5-BIO6) HE RCP85 2070'
p1116
sg38
S'clim.he8570.bio07'
p1117
sg40
g41
sg42
S'he8570'
p1118
sg44
S'2070'
p1119
ssS'bio06'
p1120
(dp1121
g8
S'clim'
p1122
sg10
I4326
sg11
S'yes'
p1123
sg13
S'he8570.bio06'
p1124
sg15
I329
sg16
S'bio06'
p1125
sg18
S'Min Temperature of Coldest Month'
p1126
sg20
S'climate'
p1127
sg22
S'2015-03-24 21:05:32'
p1128
sg24
S'../views/GTiff/clim.he8570.bio06.tif'
p1129
sg26
S'85'
p1130
sg28
S'6215'
p1131
sg30
S'clim.he8570.bio06.tif'
p1132
sg32
g33
sg34
g35
sg36
S'Min Temperature of Coldest Month HE RCP85 2070'
p1133
sg38
S'clim.he8570.bio06'
p1134
sg40
g41
sg42
S'he8570'
p1135
sg44
S'2070'
p1136
ssS'bio12'
p1137
(dp1138
g8
S'clim'
p1139
sg10
I4326
sg11
S'yes'
p1140
sg13
S'he8570.bio12'
p1141
sg15
I97
sg16
S'bio12'
p1142
sg18
S'Annual Precipitation'
p1143
sg20
S'climate'
p1144
sg22
S'2015-03-24 21:05:32'
p1145
sg24
S'../views/GTiff/clim.he8570.bio12.tif'
p1146
sg26
S'85'
p1147
sg28
S'6213'
p1148
sg30
S'clim.he8570.bio12.tif'
p1149
sg32
g33
sg34
g35
sg36
S'Annual Precipitation HE RCP85 2070'
p1150
sg38
S'clim.he8570.bio12'
p1151
sg40
g41
sg42
S'he8570'
p1152
sg44
S'2070'
p1153
ssS'bio13'
p1154
(dp1155
g8
S'clim'
p1156
sg10
I4326
sg11
S'yes'
p1157
sg13
S'he8570.bio13'
p1158
sg15
I163
sg16
S'bio13'
p1159
sg18
S'Precipitation of Wettest Month'
p1160
sg20
S'climate'
p1161
sg22
S'2015-03-24 21:05:32'
p1162
sg24
S'../views/GTiff/clim.he8570.bio13.tif'
p1163
sg26
S'85'
p1164
sg28
S'6209'
p1165
sg30
S'clim.he8570.bio13.tif'
p1166
sg32
g33
sg34
g35
sg36
S'Precipitation of Wettest Month HE RCP85 2070'
p1167
sg38
S'clim.he8570.bio13'
p1168
sg40
g41
sg42
S'he8570'
p1169
sg44
S'2070'
p1170
ssS'bio14'
p1171
(dp1172
g8
S'clim'
p1173
sg10
I4326
sg11
S'yes'
p1174
sg13
S'he8570.bio14'
p1175
sg15
I249
sg16
S'bio14'
p1176
sg18
S'Precipitation of Driest Month'
p1177
sg20
S'climate'
p1178
sg22
S'2015-03-24 21:05:32'
p1179
sg24
S'../views/GTiff/clim.he8570.bio14.tif'
p1180
sg26
S'85'
p1181
sg28
S'6223'
p1182
sg30
S'clim.he8570.bio14.tif'
p1183
sg32
g33
sg34
g35
sg36
S'Precipitation of Driest Month HE RCP85 2070'
p1184
sg38
S'clim.he8570.bio14'
p1185
sg40
g41
sg42
S'he8570'
p1186
sg44
S'2070'
p1187
ssS'bio15'
p1188
(dp1189
g8
S'clim'
p1190
sg10
I4326
sg11
S'yes'
p1191
sg13
S'he8570.bio15'
p1192
sg15
I162
sg16
S'bio15'
p1193
sg18
S'Precipitation Seasonality (Coefficient of Variation)'
p1194
sg20
S'climate'
p1195
sg22
S'2015-03-24 21:05:32'
p1196
sg24
S'../views/GTiff/clim.he8570.bio15.tif'
p1197
sg26
S'85'
p1198
sg28
S'6212'
p1199
sg30
S'clim.he8570.bio15.tif'
p1200
sg32
g33
sg34
g35
sg36
S'Precipitation Seasonality (Coefficient of Variation) HE RCP85 2070'
p1201
sg38
S'clim.he8570.bio15'
p1202
sg40
g41
sg42
S'he8570'
p1203
sg44
S'2070'
p1204
ssS'bio16'
p1205
(dp1206
g8
S'clim'
p1207
sg10
I4326
sg11
S'yes'
p1208
sg13
S'he8570.bio16'
p1209
sg15
I219
sg16
S'bio16'
p1210
sg18
S'Precipitation of Wettest Quarter'
p1211
sg20
S'climate'
p1212
sg22
S'2015-03-24 21:05:32'
p1213
sg24
S'../views/GTiff/clim.he8570.bio16.tif'
p1214
sg26
S'85'
p1215
sg28
S'6211'
p1216
sg30
S'clim.he8570.bio16.tif'
p1217
sg32
g33
sg34
g35
sg36
S'Precipitation of Wettest Quarter HE RCP85 2070'
p1218
sg38
S'clim.he8570.bio16'
p1219
sg40
g41
sg42
S'he8570'
p1220
sg44
S'2070'
p1221
ssS'bio17'
p1222
(dp1223
g8
S'clim'
p1224
sg10
I4326
sg11
S'yes'
p1225
sg13
S'he8570.bio17'
p1226
sg15
I79
sg16
S'bio17'
p1227
sg18
S'Precipitation of Driest Quarter'
p1228
sg20
S'climate'
p1229
sg22
S'2015-03-24 21:05:32'
p1230
sg24
S'../views/GTiff/clim.he8570.bio17.tif'
p1231
sg26
S'85'
p1232
sg28
S'6221'
p1233
sg30
S'clim.he8570.bio17.tif'
p1234
sg32
g33
sg34
g35
sg36
S'Precipitation of Driest Quarter HE RCP85 2070'
p1235
sg38
S'clim.he8570.bio17'
p1236
sg40
g41
sg42
S'he8570'
p1237
sg44
S'2070'
p1238
ssS'bio18'
p1239
(dp1240
g8
S'clim'
p1241
sg10
I4326
sg11
S'yes'
p1242
sg13
S'he8570.bio18'
p1243
sg15
I76
sg16
S'bio18'
p1244
sg18
S'Precipitation of Warmest Quarter'
p1245
sg20
S'climate'
p1246
sg22
S'2015-03-24 21:05:32'
p1247
sg24
S'../views/GTiff/clim.he8570.bio18.tif'
p1248
sg26
S'85'
p1249
sg28
S'6222'
p1250
sg30
S'clim.he8570.bio18.tif'
p1251
sg32
g33
sg34
g35
sg36
S'Precipitation of Warmest Quarter HE RCP85 2070'
p1252
sg38
S'clim.he8570.bio18'
p1253
sg40
g41
sg42
S'he8570'
p1254
sg44
S'2070'
p1255
ssS'bio03'
p1256
(dp1257
g8
S'clim'
p1258
sg10
I4326
sg11
S'yes'
p1259
sg13
S'he8570.bio03'
p1260
sg15
I2
sg16
S'bio03'
p1261
sg18
S'Isothermality (BIO2/BIO7) (* 100)'
p1262
sg20
S'climate'
p1263
sg22
S'2015-03-24 21:05:32'
p1264
sg24
S'../views/GTiff/clim.he8570.bio03.tif'
p1265
sg26
S'85'
p1266
sg28
S'6218'
p1267
sg30
S'clim.he8570.bio03.tif'
p1268
sg32
g33
sg34
g35
sg36
S'Isothermality (BIO2/BIO7) (* 100) HE RCP85 2070'
p1269
sg38
S'clim.he8570.bio03'
p1270
sg40
g41
sg42
g999
sg44
S'2070'
p1271
ssS'bio08'
p1272
(dp1273
g8
S'clim'
p1274
sg10
I4326
sg11
S'yes'
p1275
sg13
S'he8570.bio08'
p1276
sg15
I22
sg16
S'bio08'
p1277
sg18
S'Mean Temperature of Wettest Quarter'
p1278
sg20
S'climate'
p1279
sg22
S'2015-03-24 21:05:32'
p1280
sg24
S'../views/GTiff/clim.he8570.bio08.tif'
p1281
sg26
S'85'
p1282
sg28
S'6225'
p1283
sg30
S'clim.he8570.bio08.tif'
p1284
sg32
g33
sg34
g35
sg36
S'Mean Temperature of Wettest Quarter HE RCP85 2070'
p1285
sg38
S'clim.he8570.bio08'
p1286
sg40
g41
sg42
S'he8570'
p1287
sg44
S'2070'
p1288
ssS'bio04'
p1289
(dp1290
g8
S'clim'
p1291
sg10
I4326
sg11
S'yes'
p1292
sg13
S'he8570.bio04'
p1293
sg15
I189
sg16
S'bio04'
p1294
sg18
S'Temperature Seasonality (standard deviation *100)'
p1295
sg20
S'climate'
p1296
sg22
S'2015-03-24 21:05:32'
p1297
sg24
S'../views/GTiff/clim.he8570.bio04.tif'
p1298
sg26
S'85'
p1299
sg28
S'6217'
p1300
sg30
S'clim.he8570.bio04.tif'
p1301
sg32
g33
sg34
g35
sg36
S'Temperature Seasonality (standard deviation *100) HE RCP85 2070'
p1302
sg38
S'clim.he8570.bio04'
p1303
sg40
g41
sg42
S'he8570'
p1304
sg44
S'2070'
p1305
ssS'bio02'
p1306
(dp1307
g8
S'clim'
p1308
sg10
I4326
sg11
S'yes'
p1309
sg13
S'he8570.bio02'
p1310
sg15
I92
sg16
S'bio02'
p1311
sg18
S'Mean Diurnal Range (Mean of monthly (max temp - min temp))'
p1312
sg20
S'climate'
p1313
sg22
S'2015-03-24 21:05:32'
p1314
sg24
S'../views/GTiff/clim.he8570.bio02.tif'
p1315
sg26
S'85'
p1316
sg28
S'6219'
p1317
sg30
S'clim.he8570.bio02.tif'
p1318
sg32
g33
sg34
g35
sg36
S'Mean Diurnal Range (Mean of monthly (max temp - min temp)) HE RCP85 2070'
p1319
sg38
S'clim.he8570.bio02'
p1320
sg40
g41
sg42
S'he8570'
p1321
sg44
S'2070'
p1322
sssS'he2650'
p1323
(dp1324
S'bio10'
p1325
(dp1326
g8
S'clim'
p1327
sg10
I4326
sg11
S'yes'
p1328
sg13
S'he2650.bio10'
p1329
sg15
I105
sg16
S'bio10'
p1330
sg18
S'Mean Temperature of Warmest Quarter'
p1331
sg20
S'climate'
p1332
sg22
S'2015-03-24 21:05:32'
p1333
sg24
S'../views/GTiff/clim.he2650.bio10.tif'
p1334
sg26
S'26'
p1335
sg28
S'6226'
p1336
sg30
S'clim.he2650.bio10.tif'
p1337
sg32
g33
sg34
g35
sg36
S'Mean Temperature of Warmest Quarter HE RCP26 2050'
p1338
sg38
S'clim.he2650.bio10'
p1339
sg40
g41
sg42
S'he2650'
p1340
sg44
S'2050'
p1341
ssS'bio01'
p1342
(dp1343
g8
S'clim'
p1344
sg10
I4326
sg11
S'yes'
p1345
sg13
S'he2650.bio01'
p1346
sg15
I70
sg16
S'bio01'
p1347
sg18
S'Annual Mean Temperature'
p1348
sg20
S'climate'
p1349
sg22
S'2015-03-24 21:05:32'
p1350
sg24
S'../views/GTiff/clim.he2650.bio01.tif'
p1351
sg26
S'26'
p1352
sg28
S'6239'
p1353
sg30
S'clim.he2650.bio01.tif'
p1354
sg32
g33
sg34
g35
sg36
S'Annual Mean Temperature HE RCP26 2050'
p1355
sg38
S'clim.he2650.bio01'
p1356
sg40
g41
sg42
S'he2650'
p1357
sg44
S'2050'
p1358
ssS'bio11'
p1359
(dp1360
g8
S'clim'
p1361
sg10
I4326
sg11
S'yes'
p1362
sg13
S'he2650.bio11'
p1363
sg15
I72
sg16
S'bio11'
p1364
sg18
S'Mean Temperature of Coldest Quarter'
p1365
sg20
S'climate'
p1366
sg22
S'2015-03-24 21:05:32'
p1367
sg24
S'../views/GTiff/clim.he2650.bio11.tif'
p1368
sg26
S'26'
p1369
sg28
S'6229'
p1370
sg30
S'clim.he2650.bio11.tif'
p1371
sg32
g33
sg34
g35
sg36
S'Mean Temperature of Coldest Quarter HE RCP26 2050'
p1372
sg38
S'clim.he2650.bio11'
p1373
sg40
g41
sg42
S'he2650'
p1374
sg44
S'2050'
p1375
ssS'bio09'
p1376
(dp1377
g8
S'clim'
p1378
sg10
I4326
sg11
S'yes'
p1379
sg13
S'he2650.bio09'
p1380
sg15
I146
sg16
S'bio09'
p1381
sg18
S'Mean Temperature of Driest Quarter'
p1382
sg20
S'climate'
p1383
sg22
S'2015-03-24 21:05:32'
p1384
sg24
S'../views/GTiff/clim.he2650.bio09.tif'
p1385
sg26
S'26'
p1386
sg28
S'6243'
p1387
sg30
S'clim.he2650.bio09.tif'
p1388
sg32
g33
sg34
g35
sg36
S'Mean Temperature of Driest Quarter HE RCP26 2050'
p1389
sg38
S'clim.he2650.bio09'
p1390
sg40
g41
sg42
S'he2650'
p1391
sg44
S'2050'
p1392
ssS'bio05'
p1393
(dp1394
g8
S'clim'
p1395
sg10
I4326
sg11
S'yes'
p1396
sg13
S'he2650.bio05'
p1397
sg15
I20
sg16
S'bio05'
p1398
sg18
S'Max Temperature of Warmest Month'
p1399
sg20
S'climate'
p1400
sg22
S'2015-03-24 21:05:32'
p1401
sg24
S'../views/GTiff/clim.he2650.bio05.tif'
p1402
sg26
S'26'
p1403
sg28
S'6235'
p1404
sg30
S'clim.he2650.bio05.tif'
p1405
sg32
g33
sg34
g35
sg36
S'Max Temperature of Warmest Month HE RCP26 2050'
p1406
sg38
S'clim.he2650.bio05'
p1407
sg40
g41
sg42
g1323
sg44
S'2050'
p1408
ssS'bio07'
p1409
(dp1410
g8
S'clim'
p1411
sg10
I4326
sg11
S'yes'
p1412
sg13
S'he2650.bio07'
p1413
sg15
I259
sg16
S'bio07'
p1414
sg18
S'Temperature Annual Range (BIO5-BIO6)'
p1415
sg20
S'climate'
p1416
sg22
S'2015-03-24 21:05:32'
p1417
sg24
S'../views/GTiff/clim.he2650.bio07.tif'
p1418
sg26
S'26'
p1419
sg28
S'6233'
p1420
sg30
S'clim.he2650.bio07.tif'
p1421
sg32
g33
sg34
g35
sg36
S'Temperature Annual Range (BIO5-BIO6) HE RCP26 2050'
p1422
sg38
S'clim.he2650.bio07'
p1423
sg40
g41
sg42
S'he2650'
p1424
sg44
S'2050'
p1425
ssS'bio06'
p1426
(dp1427
g8
S'clim'
p1428
sg10
I4326
sg11
S'yes'
p1429
sg13
S'he2650.bio06'
p1430
sg15
I171
sg16
S'bio06'
p1431
sg18
S'Min Temperature of Coldest Month'
p1432
sg20
S'climate'
p1433
sg22
S'2015-03-24 21:05:32'
p1434
sg24
S'../views/GTiff/clim.he2650.bio06.tif'
p1435
sg26
S'26'
p1436
sg28
S'6234'
p1437
sg30
S'clim.he2650.bio06.tif'
p1438
sg32
g33
sg34
g35
sg36
S'Min Temperature of Coldest Month HE RCP26 2050'
p1439
sg38
S'clim.he2650.bio06'
p1440
sg40
g41
sg42
S'he2650'
p1441
sg44
S'2050'
p1442
ssS'bio12'
p1443
(dp1444
g8
S'clim'
p1445
sg10
I4326
sg11
S'yes'
p1446
sg13
S'he2650.bio12'
p1447
sg15
I47
sg16
S'bio12'
p1448
sg18
S'Annual Precipitation'
p1449
sg20
S'climate'
p1450
sg22
S'2015-03-24 21:05:32'
p1451
sg24
S'../views/GTiff/clim.he2650.bio12.tif'
p1452
sg26
S'26'
p1453
sg28
S'6232'
p1454
sg30
S'clim.he2650.bio12.tif'
p1455
sg32
g33
sg34
g35
sg36
S'Annual Precipitation HE RCP26 2050'
p1456
sg38
S'clim.he2650.bio12'
p1457
sg40
g41
sg42
S'he2650'
p1458
sg44
S'2050'
p1459
ssS'bio13'
p1460
(dp1461
g8
S'clim'
p1462
sg10
I4326
sg11
S'yes'
p1463
sg13
S'he2650.bio13'
p1464
sg15
I183
sg16
S'bio13'
p1465
sg18
S'Precipitation of Wettest Month'
p1466
sg20
S'climate'
p1467
sg22
S'2015-03-24 21:05:32'
p1468
sg24
S'../views/GTiff/clim.he2650.bio13.tif'
p1469
sg26
S'26'
p1470
sg28
S'6228'
p1471
sg30
S'clim.he2650.bio13.tif'
p1472
sg32
g33
sg34
g35
sg36
S'Precipitation of Wettest Month HE RCP26 2050'
p1473
sg38
S'clim.he2650.bio13'
p1474
sg40
g41
sg42
S'he2650'
p1475
sg44
S'2050'
p1476
ssS'bio14'
p1477
(dp1478
g8
S'clim'
p1479
sg10
I4326
sg11
S'yes'
p1480
sg13
S'he2650.bio14'
p1481
sg15
I236
sg16
S'bio14'
p1482
sg18
S'Precipitation of Driest Month'
p1483
sg20
S'climate'
p1484
sg22
S'2015-03-24 21:05:32'
p1485
sg24
S'../views/GTiff/clim.he2650.bio14.tif'
p1486
sg26
S'26'
p1487
sg28
S'6242'
p1488
sg30
S'clim.he2650.bio14.tif'
p1489
sg32
g33
sg34
g35
sg36
S'Precipitation of Driest Month HE RCP26 2050'
p1490
sg38
S'clim.he2650.bio14'
p1491
sg40
g41
sg42
S'he2650'
p1492
sg44
S'2050'
p1493
ssS'bio15'
p1494
(dp1495
g8
S'clim'
p1496
sg10
I4326
sg11
S'yes'
p1497
sg13
S'he2650.bio15'
p1498
sg15
I59
sg16
S'bio15'
p1499
sg18
S'Precipitation Seasonality (Coefficient of Variation)'
p1500
sg20
S'climate'
p1501
sg22
S'2015-03-24 21:05:32'
p1502
sg24
S'../views/GTiff/clim.he2650.bio15.tif'
p1503
sg26
S'26'
p1504
sg28
S'6231'
p1505
sg30
S'clim.he2650.bio15.tif'
p1506
sg32
g33
sg34
g35
sg36
S'Precipitation Seasonality (Coefficient of Variation) HE RCP26 2050'
p1507
sg38
S'clim.he2650.bio15'
p1508
sg40
g41
sg42
S'he2650'
p1509
sg44
S'2050'
p1510
ssS'bio16'
p1511
(dp1512
g8
S'clim'
p1513
sg10
I4326
sg11
S'yes'
p1514
sg13
S'he2650.bio16'
p1515
sg15
I178
sg16
S'bio16'
p1516
sg18
S'Precipitation of Wettest Quarter'
p1517
sg20
S'climate'
p1518
sg22
S'2015-03-24 21:05:32'
p1519
sg24
S'../views/GTiff/clim.he2650.bio16.tif'
p1520
sg26
S'26'
p1521
sg28
S'6230'
p1522
sg30
S'clim.he2650.bio16.tif'
p1523
sg32
g33
sg34
g35
sg36
S'Precipitation of Wettest Quarter HE RCP26 2050'
p1524
sg38
S'clim.he2650.bio16'
p1525
sg40
g41
sg42
S'he2650'
p1526
sg44
S'2050'
p1527
ssS'bio17'
p1528
(dp1529
g8
S'clim'
p1530
sg10
I4326
sg11
S'yes'
p1531
sg13
S'he2650.bio17'
p1532
sg15
I35
sg16
S'bio17'
p1533
sg18
S'Precipitation of Driest Quarter'
p1534
sg20
S'climate'
p1535
sg22
S'2015-03-24 21:05:32'
p1536
sg24
S'../views/GTiff/clim.he2650.bio17.tif'
p1537
sg26
S'26'
p1538
sg28
S'6240'
p1539
sg30
S'clim.he2650.bio17.tif'
p1540
sg32
g33
sg34
g35
sg36
S'Precipitation of Driest Quarter HE RCP26 2050'
p1541
sg38
S'clim.he2650.bio17'
p1542
sg40
g41
sg42
S'he2650'
p1543
sg44
S'2050'
p1544
ssS'bio18'
p1545
(dp1546
g8
S'clim'
p1547
sg10
I4326
sg11
S'yes'
p1548
sg13
S'he2650.bio18'
p1549
sg15
I157
sg16
S'bio18'
p1550
sg18
S'Precipitation of Warmest Quarter'
p1551
sg20
S'climate'
p1552
sg22
S'2015-03-24 21:05:32'
p1553
sg24
S'../views/GTiff/clim.he2650.bio18.tif'
p1554
sg26
S'26'
p1555
sg28
S'6241'
p1556
sg30
S'clim.he2650.bio18.tif'
p1557
sg32
g33
sg34
g35
sg36
S'Precipitation of Warmest Quarter HE RCP26 2050'
p1558
sg38
S'clim.he2650.bio18'
p1559
sg40
g41
sg42
S'he2650'
p1560
sg44
S'2050'
p1561
ssS'bio19'
p1562
(dp1563
g8
S'clim'
p1564
sg10
I4326
sg11
S'yes'
p1565
sg13
S'he2650.bio19'
p1566
sg15
I83
sg16
S'bio19'
p1567
sg18
S'Precipitation of Coldest Quarter'
p1568
sg20
S'climate'
p1569
sg22
S'2015-03-24 21:05:32'
p1570
sg24
S'../views/GTiff/clim.he2650.bio19.tif'
p1571
sg26
S'26'
p1572
sg28
S'6227'
p1573
sg30
S'clim.he2650.bio19.tif'
p1574
sg32
g33
sg34
g35
sg36
S'Precipitation of Coldest Quarter HE RCP26 2050'
p1575
sg38
S'clim.he2650.bio19'
p1576
sg40
g41
sg42
S'he2650'
p1577
sg44
S'2050'
p1578
ssS'bio02'
p1579
(dp1580
g8
S'clim'
p1581
sg10
I4326
sg11
S'yes'
p1582
sg13
S'he2650.bio02'
p1583
sg15
I91
sg16
S'bio02'
p1584
sg18
S'Mean Diurnal Range (Mean of monthly (max temp - min temp))'
p1585
sg20
S'climate'
p1586
sg22
S'2015-03-24 21:05:32'
p1587
sg24
S'../views/GTiff/clim.he2650.bio02.tif'
p1588
sg26
S'26'
p1589
sg28
S'6238'
p1590
sg30
S'clim.he2650.bio02.tif'
p1591
sg32
g33
sg34
g35
sg36
S'Mean Diurnal Range (Mean of monthly (max temp - min temp)) HE RCP26 2050'
p1592
sg38
S'clim.he2650.bio02'
p1593
sg40
g41
sg42
S'he2650'
p1594
sg44
S'2050'
p1595
ssS'bio03'
p1596
(dp1597
g8
S'clim'
p1598
sg10
I4326
sg11
S'yes'
p1599
sg13
S'he2650.bio03'
p1600
sg15
I296
sg16
S'bio03'
p1601
sg18
S'Isothermality (BIO2/BIO7) (* 100)'
p1602
sg20
S'climate'
p1603
sg22
S'2015-03-24 21:05:32'
p1604
sg24
S'../views/GTiff/clim.he2650.bio03.tif'
p1605
sg26
S'26'
p1606
sg28
S'6237'
p1607
sg30
S'clim.he2650.bio03.tif'
p1608
sg32
g33
sg34
g35
sg36
S'Isothermality (BIO2/BIO7) (* 100) HE RCP26 2050'
p1609
sg38
S'clim.he2650.bio03'
p1610
sg40
g41
sg42
S'he2650'
p1611
sg44
S'2050'
p1612
ssS'bio04'
p1613
(dp1614
g8
S'clim'
p1615
sg10
I4326
sg11
S'yes'
p1616
sg13
S'he2650.bio04'
p1617
sg15
I314
sg16
S'bio04'
p1618
sg18
S'Temperature Seasonality (standard deviation *100)'
p1619
sg20
S'climate'
p1620
sg22
S'2015-03-24 21:05:32'
p1621
sg24
S'../views/GTiff/clim.he2650.bio04.tif'
p1622
sg26
S'26'
p1623
sg28
S'6236'
p1624
sg30
S'clim.he2650.bio04.tif'
p1625
sg32
g33
sg34
g35
sg36
S'Temperature Seasonality (standard deviation *100) HE RCP26 2050'
p1626
sg38
S'clim.he2650.bio04'
p1627
sg40
g41
sg42
S'he2650'
p1628
sg44
S'2050'
p1629
ssS'bio08'
p1630
(dp1631
g8
S'clim'
p1632
sg10
I4326
sg11
S'yes'
p1633
sg13
S'he2650.bio08'
p1634
sg15
I130
sg16
S'bio08'
p1635
sg18
S'Mean Temperature of Wettest Quarter'
p1636
sg20
S'climate'
p1637
sg22
S'2015-03-24 21:05:32'
p1638
sg24
S'../views/GTiff/clim.he2650.bio08.tif'
p1639
sg26
S'26'
p1640
sg28
S'6244'
p1641
sg30
S'clim.he2650.bio08.tif'
p1642
sg32
g33
sg34
g35
sg36
S'Mean Temperature of Wettest Quarter HE RCP26 2050'
p1643
sg38
S'clim.he2650.bio08'
p1644
sg40
g41
sg42
S'he2650'
p1645
sg44
S'2050'
p1646
sssS'he6050'
p1647
(dp1648
S'bio07'
p1649
(dp1650
g8
S'clim'
p1651
sg10
I4326
sg11
S'yes'
p1652
sg13
S'he6050.bio07'
p1653
sg15
I49
sg16
S'bio07'
p1654
sg18
S'Temperature Annual Range (BIO5-BIO6)'
p1655
sg20
S'climate'
p1656
sg22
S'2015-03-24 21:05:32'
p1657
sg24
S'../views/GTiff/clim.he6050.bio07.tif'
p1658
sg26
S'60'
p1659
sg28
S'6252'
p1660
sg30
S'clim.he6050.bio07.tif'
p1661
sg32
g33
sg34
g35
sg36
S'Temperature Annual Range (BIO5-BIO6) HE RCP60 2050'
p1662
sg38
S'clim.he6050.bio07'
p1663
sg40
g41
sg42
S'he6050'
p1664
sg44
S'2050'
p1665
ssS'bio19'
p1666
(dp1667
g8
S'clim'
p1668
sg10
I4326
sg11
S'yes'
p1669
sg13
S'he6050.bio19'
p1670
sg15
I99
sg16
S'bio19'
p1671
sg18
S'Precipitation of Coldest Quarter'
p1672
sg20
S'climate'
p1673
sg22
S'2015-03-24 21:05:32'
p1674
sg24
S'../views/GTiff/clim.he6050.bio19.tif'
p1675
sg26
S'60'
p1676
sg28
S'6246'
p1677
sg30
S'clim.he6050.bio19.tif'
p1678
sg32
g33
sg34
g35
sg36
S'Precipitation of Coldest Quarter HE RCP60 2050'
p1679
sg38
S'clim.he6050.bio19'
p1680
sg40
g41
sg42
S'he6050'
p1681
sg44
S'2050'
p1682
ssS'bio01'
p1683
(dp1684
g8
S'clim'
p1685
sg10
I4326
sg11
S'yes'
p1686
sg13
S'he6050.bio01'
p1687
sg15
I27
sg16
S'bio01'
p1688
sg18
S'Annual Mean Temperature'
p1689
sg20
S'climate'
p1690
sg22
S'2015-03-24 21:05:32'
p1691
sg24
S'../views/GTiff/clim.he6050.bio01.tif'
p1692
sg26
S'60'
p1693
sg28
S'6258'
p1694
sg30
S'clim.he6050.bio01.tif'
p1695
sg32
g33
sg34
g35
sg36
S'Annual Mean Temperature HE RCP60 2050'
p1696
sg38
S'clim.he6050.bio01'
p1697
sg40
g41
sg42
S'he6050'
p1698
sg44
S'2050'
p1699
ssS'bio11'
p1700
(dp1701
g8
S'clim'
p1702
sg10
I4326
sg11
S'yes'
p1703
sg13
S'he6050.bio11'
p1704
sg15
I221
sg16
S'bio11'
p1705
sg18
S'Mean Temperature of Coldest Quarter'
p1706
sg20
S'climate'
p1707
sg22
S'2015-03-24 21:05:32'
p1708
sg24
S'../views/GTiff/clim.he6050.bio11.tif'
p1709
sg26
S'60'
p1710
sg28
S'6248'
p1711
sg30
S'clim.he6050.bio11.tif'
p1712
sg32
g33
sg34
g35
sg36
S'Mean Temperature of Coldest Quarter HE RCP60 2050'
p1713
sg38
S'clim.he6050.bio11'
p1714
sg40
g41
sg42
S'he6050'
p1715
sg44
S'2050'
p1716
ssS'bio09'
p1717
(dp1718
g8
S'clim'
p1719
sg10
I4326
sg11
S'yes'
p1720
sg13
S'he6050.bio09'
p1721
sg15
I89
sg16
S'bio09'
p1722
sg18
S'Mean Temperature of Driest Quarter'
p1723
sg20
S'climate'
p1724
sg22
S'2015-03-24 21:05:32'
p1725
sg24
S'../views/GTiff/clim.he6050.bio09.tif'
p1726
sg26
S'60'
p1727
sg28
S'6262'
p1728
sg30
S'clim.he6050.bio09.tif'
p1729
sg32
g33
sg34
g35
sg36
S'Mean Temperature of Driest Quarter HE RCP60 2050'
p1730
sg38
S'clim.he6050.bio09'
p1731
sg40
g41
sg42
S'he6050'
p1732
sg44
S'2050'
p1733
ssS'bio15'
p1734
(dp1735
g8
S'clim'
p1736
sg10
I4326
sg11
S'yes'
p1737
sg13
S'he6050.bio15'
p1738
sg15
I116
sg16
S'bio15'
p1739
sg18
S'Precipitation Seasonality (Coefficient of Variation)'
p1740
sg20
S'climate'
p1741
sg22
S'2015-03-24 21:05:32'
p1742
sg24
S'../views/GTiff/clim.he6050.bio15.tif'
p1743
sg26
S'60'
p1744
sg28
S'6250'
p1745
sg30
S'clim.he6050.bio15.tif'
p1746
sg32
g33
sg34
g35
sg36
S'Precipitation Seasonality (Coefficient of Variation) HE RCP60 2050'
p1747
sg38
S'clim.he6050.bio15'
p1748
sg40
g41
sg42
S'he6050'
p1749
sg44
S'2050'
p1750
ssS'bio12'
p1751
(dp1752
g8
g2
sg10
I4326
sg11
S'yes'
p1753
sg13
S'he6050.bio12'
p1754
sg15
I0
sg16
S'bio12'
p1755
sg18
S'Annual Precipitation'
p1756
sg20
S'climate'
p1757
sg22
S'2015-03-24 21:05:32'
p1758
sg24
S'../views/GTiff/clim.he6050.bio12.tif'
p1759
sg26
S'60'
p1760
sg28
S'6251'
p1761
sg30
S'clim.he6050.bio12.tif'
p1762
sg32
g33
sg34
g35
sg36
S'Annual Precipitation HE RCP60 2050'
p1763
sg38
S'clim.he6050.bio12'
p1764
sg40
g41
sg42
g1647
sg44
S'2050'
p1765
ssS'bio10'
p1766
(dp1767
g8
S'clim'
p1768
sg10
I4326
sg11
S'yes'
p1769
sg13
S'he6050.bio10'
p1770
sg15
I295
sg16
S'bio10'
p1771
sg18
S'Mean Temperature of Warmest Quarter'
p1772
sg20
S'climate'
p1773
sg22
S'2015-03-24 21:05:32'
p1774
sg24
S'../views/GTiff/clim.he6050.bio10.tif'
p1775
sg26
S'60'
p1776
sg28
S'6245'
p1777
sg30
S'clim.he6050.bio10.tif'
p1778
sg32
g33
sg34
g35
sg36
S'Mean Temperature of Warmest Quarter HE RCP60 2050'
p1779
sg38
S'clim.he6050.bio10'
p1780
sg40
g41
sg42
S'he6050'
p1781
sg44
S'2050'
p1782
ssS'bio06'
p1783
(dp1784
g8
S'clim'
p1785
sg10
I4326
sg11
S'yes'
p1786
sg13
S'he6050.bio06'
p1787
sg15
I317
sg16
S'bio06'
p1788
sg18
S'Min Temperature of Coldest Month'
p1789
sg20
S'climate'
p1790
sg22
S'2015-03-24 21:05:32'
p1791
sg24
S'../views/GTiff/clim.he6050.bio06.tif'
p1792
sg26
S'60'
p1793
sg28
S'6253'
p1794
sg30
S'clim.he6050.bio06.tif'
p1795
sg32
g33
sg34
g35
sg36
S'Min Temperature of Coldest Month HE RCP60 2050'
p1796
sg38
S'clim.he6050.bio06'
p1797
sg40
g41
sg42
S'he6050'
p1798
sg44
S'2050'
p1799
ssS'bio05'
p1800
(dp1801
g8
S'clim'
p1802
sg10
I4326
sg11
S'yes'
p1803
sg13
S'he6050.bio05'
p1804
sg15
I334
sg16
S'bio05'
p1805
sg18
S'Max Temperature of Warmest Month'
p1806
sg20
S'climate'
p1807
sg22
S'2015-03-24 21:05:32'
p1808
sg24
S'../views/GTiff/clim.he6050.bio05.tif'
p1809
sg26
S'60'
p1810
sg28
S'6254'
p1811
sg30
S'clim.he6050.bio05.tif'
p1812
sg32
g33
sg34
g35
sg36
S'Max Temperature of Warmest Month HE RCP60 2050'
p1813
sg38
S'clim.he6050.bio05'
p1814
sg40
g41
sg42
S'he6050'
p1815
sg44
S'2050'
p1816
ssS'bio13'
p1817
(dp1818
g8
S'clim'
p1819
sg10
I4326
sg11
S'yes'
p1820
sg13
S'he6050.bio13'
p1821
sg15
I90
sg16
S'bio13'
p1822
sg18
S'Precipitation of Wettest Month'
p1823
sg20
S'climate'
p1824
sg22
S'2015-03-24 21:05:32'
p1825
sg24
S'../views/GTiff/clim.he6050.bio13.tif'
p1826
sg26
S'60'
p1827
sg28
S'6247'
p1828
sg30
S'clim.he6050.bio13.tif'
p1829
sg32
g33
sg34
g35
sg36
S'Precipitation of Wettest Month HE RCP60 2050'
p1830
sg38
S'clim.he6050.bio13'
p1831
sg40
g41
sg42
S'he6050'
p1832
sg44
S'2050'
p1833
ssS'bio14'
p1834
(dp1835
g8
S'clim'
p1836
sg10
I4326
sg11
S'yes'
p1837
sg13
S'he6050.bio14'
p1838
sg15
I184
sg16
S'bio14'
p1839
sg18
S'Precipitation of Driest Month'
p1840
sg20
S'climate'
p1841
sg22
S'2015-03-24 21:05:32'
p1842
sg24
S'../views/GTiff/clim.he6050.bio14.tif'
p1843
sg26
S'60'
p1844
sg28
S'6261'
p1845
sg30
S'clim.he6050.bio14.tif'
p1846
sg32
g33
sg34
g35
sg36
S'Precipitation of Driest Month HE RCP60 2050'
p1847
sg38
S'clim.he6050.bio14'
p1848
sg40
g41
sg42
S'he6050'
p1849
sg44
S'2050'
p1850
ssS'bio02'
p1851
(dp1852
g8
S'clim'
p1853
sg10
I4326
sg11
S'yes'
p1854
sg13
S'he6050.bio02'
p1855
sg15
I31
sg16
S'bio02'
p1856
sg18
S'Mean Diurnal Range (Mean of monthly (max temp - min temp))'
p1857
sg20
S'climate'
p1858
sg22
S'2015-03-24 21:05:32'
p1859
sg24
S'../views/GTiff/clim.he6050.bio02.tif'
p1860
sg26
S'60'
p1861
sg28
S'6257'
p1862
sg30
S'clim.he6050.bio02.tif'
p1863
sg32
g33
sg34
g35
sg36
S'Mean Diurnal Range (Mean of monthly (max temp - min temp)) HE RCP60 2050'
p1864
sg38
S'clim.he6050.bio02'
p1865
sg40
g41
sg42
S'he6050'
p1866
sg44
S'2050'
p1867
ssS'bio16'
p1868
(dp1869
g8
S'clim'
p1870
sg10
I4326
sg11
S'yes'
p1871
sg13
S'he6050.bio16'
p1872
sg15
I80
sg16
S'bio16'
p1873
sg18
S'Precipitation of Wettest Quarter'
p1874
sg20
S'climate'
p1875
sg22
S'2015-03-24 21:05:32'
p1876
sg24
S'../views/GTiff/clim.he6050.bio16.tif'
p1877
sg26
S'60'
p1878
sg28
S'6249'
p1879
sg30
S'clim.he6050.bio16.tif'
p1880
sg32
g33
sg34
g35
sg36
S'Precipitation of Wettest Quarter HE RCP60 2050'
p1881
sg38
S'clim.he6050.bio16'
p1882
sg40
g41
sg42
S'he6050'
p1883
sg44
S'2050'
p1884
ssS'bio17'
p1885
(dp1886
g8
S'clim'
p1887
sg10
I4326
sg11
S'yes'
p1888
sg13
S'he6050.bio17'
p1889
sg15
I18
sg16
S'bio17'
p1890
sg18
S'Precipitation of Driest Quarter'
p1891
sg20
S'climate'
p1892
sg22
S'2015-03-24 21:05:32'
p1893
sg24
S'../views/GTiff/clim.he6050.bio17.tif'
p1894
sg26
S'60'
p1895
sg28
S'6259'
p1896
sg30
S'clim.he6050.bio17.tif'
p1897
sg32
g33
sg34
g35
sg36
S'Precipitation of Driest Quarter HE RCP60 2050'
p1898
sg38
S'clim.he6050.bio17'
p1899
sg40
g41
sg42
S'he6050'
p1900
sg44
S'2050'
p1901
ssS'bio18'
p1902
(dp1903
g8
S'clim'
p1904
sg10
I4326
sg11
S'yes'
p1905
sg13
S'he6050.bio18'
p1906
sg15
I293
sg16
S'bio18'
p1907
sg18
S'Precipitation of Warmest Quarter'
p1908
sg20
S'climate'
p1909
sg22
S'2015-03-24 21:05:32'
p1910
sg24
S'../views/GTiff/clim.he6050.bio18.tif'
p1911
sg26
S'60'
p1912
sg28
S'6260'
p1913
sg30
S'clim.he6050.bio18.tif'
p1914
sg32
g33
sg34
g35
sg36
S'Precipitation of Warmest Quarter HE RCP60 2050'
p1915
sg38
S'clim.he6050.bio18'
p1916
sg40
g41
sg42
S'he6050'
p1917
sg44
S'2050'
p1918
ssS'bio03'
p1919
(dp1920
g8
S'clim'
p1921
sg10
I4326
sg11
S'yes'
p1922
sg13
S'he6050.bio03'
p1923
sg15
I61
sg16
S'bio03'
p1924
sg18
S'Isothermality (BIO2/BIO7) (* 100)'
p1925
sg20
S'climate'
p1926
sg22
S'2015-03-24 21:05:32'
p1927
sg24
S'../views/GTiff/clim.he6050.bio03.tif'
p1928
sg26
S'60'
p1929
sg28
S'6256'
p1930
sg30
S'clim.he6050.bio03.tif'
p1931
sg32
g33
sg34
g35
sg36
S'Isothermality (BIO2/BIO7) (* 100) HE RCP60 2050'
p1932
sg38
S'clim.he6050.bio03'
p1933
sg40
g41
sg42
S'he6050'
p1934
sg44
S'2050'
p1935
ssS'bio04'
p1936
(dp1937
g8
S'clim'
p1938
sg10
I4326
sg11
S'yes'
p1939
sg13
S'he6050.bio04'
p1940
sg15
I118
sg16
S'bio04'
p1941
sg18
S'Temperature Seasonality (standard deviation *100)'
p1942
sg20
S'climate'
p1943
sg22
S'2015-03-24 21:05:32'
p1944
sg24
S'../views/GTiff/clim.he6050.bio04.tif'
p1945
sg26
S'60'
p1946
sg28
S'6255'
p1947
sg30
S'clim.he6050.bio04.tif'
p1948
sg32
g33
sg34
g35
sg36
S'Temperature Seasonality (standard deviation *100) HE RCP60 2050'
p1949
sg38
S'clim.he6050.bio04'
p1950
sg40
g41
sg42
S'he6050'
p1951
sg44
S'2050'
p1952
ssS'bio08'
p1953
(dp1954
g8
S'clim'
p1955
sg10
I4326
sg11
S'yes'
p1956
sg13
S'he6050.bio08'
p1957
sg15
I200
sg16
S'bio08'
p1958
sg18
S'Mean Temperature of Wettest Quarter'
p1959
sg20
S'climate'
p1960
sg22
S'2015-03-24 21:05:32'
p1961
sg24
S'../views/GTiff/clim.he6050.bio08.tif'
p1962
sg26
S'60'
p1963
sg28
S'6263'
p1964
sg30
S'clim.he6050.bio08.tif'
p1965
sg32
g33
sg34
g35
sg36
S'Mean Temperature of Wettest Quarter HE RCP60 2050'
p1966
sg38
S'clim.he6050.bio08'
p1967
sg40
g41
sg42
S'he6050'
p1968
sg44
S'2050'
p1969
sssS'gs4570'
p1970
(dp1971
S'bio07'
p1972
(dp1973
g8
S'clim'
p1974
sg10
I4326
sg11
S'yes'
p1975
sg13
S'gs4570.bio07'
p1976
sg15
I84
sg16
S'bio07'
p1977
sg18
S'Temperature Annual Range (BIO5-BIO6)'
p1978
sg20
S'climate'
p1979
sg22
S'2015-03-24 21:05:32'
p1980
sg24
S'../views/GTiff/clim.gs4570.bio07.tif'
p1981
sg26
S'45'
p1982
sg28
S'6135'
p1983
sg30
S'clim.gs4570.bio07.tif'
p1984
sg32
g33
sg34
g35
sg36
S'Temperature Annual Range (BIO5-BIO6) GS RCP45 2070'
p1985
sg38
S'clim.gs4570.bio07'
p1986
sg40
g41
sg42
S'gs4570'
p1987
sg44
S'2070'
p1988
ssS'bio01'
p1989
(dp1990
g8
S'clim'
p1991
sg10
I4326
sg11
S'yes'
p1992
sg13
S'gs4570.bio01'
p1993
sg15
I17
sg16
S'bio01'
p1994
sg18
S'Annual Mean Temperature'
p1995
sg20
S'climate'
p1996
sg22
S'2015-03-24 21:05:32'
p1997
sg24
S'../views/GTiff/clim.gs4570.bio01.tif'
p1998
sg26
S'45'
p1999
sg28
S'6141'
p2000
sg30
S'clim.gs4570.bio01.tif'
p2001
sg32
g33
sg34
g35
sg36
S'Annual Mean Temperature GS RCP45 2070'
p2002
sg38
S'clim.gs4570.bio01'
p2003
sg40
g41
sg42
S'gs4570'
p2004
sg44
S'2070'
p2005
ssS'bio06'
p2006
(dp2007
g8
S'clim'
p2008
sg10
I4326
sg11
S'yes'
p2009
sg13
S'gs4570.bio06'
p2010
sg15
I34
sg16
S'bio06'
p2011
sg18
S'Min Temperature of Coldest Month'
p2012
sg20
S'climate'
p2013
sg22
S'2015-03-24 21:05:32'
p2014
sg24
S'../views/GTiff/clim.gs4570.bio06.tif'
p2015
sg26
S'45'
p2016
sg28
S'6136'
p2017
sg30
S'clim.gs4570.bio06.tif'
p2018
sg32
g33
sg34
g35
sg36
S'Min Temperature of Coldest Month GS RCP45 2070'
p2019
sg38
S'clim.gs4570.bio06'
p2020
sg40
g41
sg42
S'gs4570'
p2021
sg44
S'2070'
p2022
ssS'bio12'
p2023
(dp2024
g8
S'clim'
p2025
sg10
I4326
sg11
S'yes'
p2026
sg13
S'gs4570.bio12'
p2027
sg15
I158
sg16
S'bio12'
p2028
sg18
S'Annual Precipitation'
p2029
sg20
S'climate'
p2030
sg22
S'2015-03-24 21:05:32'
p2031
sg24
S'../views/GTiff/clim.gs4570.bio12.tif'
p2032
sg26
S'45'
p2033
sg28
S'6134'
p2034
sg30
S'clim.gs4570.bio12.tif'
p2035
sg32
g33
sg34
g35
sg36
S'Annual Precipitation GS RCP45 2070'
p2036
sg38
S'clim.gs4570.bio12'
p2037
sg40
g41
sg42
S'gs4570'
p2038
sg44
S'2070'
p2039
ssS'bio10'
p2040
(dp2041
g8
S'clim'
p2042
sg10
I4326
sg11
S'yes'
p2043
sg13
S'gs4570.bio10'
p2044
sg15
I213
sg16
S'bio10'
p2045
sg18
S'Mean Temperature of Warmest Quarter'
p2046
sg20
S'climate'
p2047
sg22
S'2015-03-24 21:05:32'
p2048
sg24
S'../views/GTiff/clim.gs4570.bio10.tif'
p2049
sg26
S'45'
p2050
sg28
S'6128'
p2051
sg30
S'clim.gs4570.bio10.tif'
p2052
sg32
g33
sg34
g35
sg36
S'Mean Temperature of Warmest Quarter GS RCP45 2070'
p2053
sg38
S'clim.gs4570.bio10'
p2054
sg40
g41
sg42
S'gs4570'
p2055
sg44
S'2070'
p2056
ssS'bio11'
p2057
(dp2058
g8
S'clim'
p2059
sg10
I4326
sg11
S'yes'
p2060
sg13
S'gs4570.bio11'
p2061
sg15
I147
sg16
S'bio11'
p2062
sg18
S'Mean Temperature of Coldest Quarter'
p2063
sg20
S'climate'
p2064
sg22
S'2015-03-24 21:05:32'
p2065
sg24
S'../views/GTiff/clim.gs4570.bio11.tif'
p2066
sg26
S'45'
p2067
sg28
S'6131'
p2068
sg30
S'clim.gs4570.bio11.tif'
p2069
sg32
g33
sg34
g35
sg36
S'Mean Temperature of Coldest Quarter GS RCP45 2070'
p2070
sg38
S'clim.gs4570.bio11'
p2071
sg40
g41
sg42
S'gs4570'
p2072
sg44
S'2070'
p2073
ssS'bio05'
p2074
(dp2075
g8
S'clim'
p2076
sg10
I4326
sg11
S'yes'
p2077
sg13
S'gs4570.bio05'
p2078
sg15
I312
sg16
S'bio05'
p2079
sg18
S'Max Temperature of Warmest Month'
p2080
sg20
S'climate'
p2081
sg22
S'2015-03-24 21:05:32'
p2082
sg24
S'../views/GTiff/clim.gs4570.bio05.tif'
p2083
sg26
S'45'
p2084
sg28
S'6137'
p2085
sg30
S'clim.gs4570.bio05.tif'
p2086
sg32
g33
sg34
g35
sg36
S'Max Temperature of Warmest Month GS RCP45 2070'
p2087
sg38
S'clim.gs4570.bio05'
p2088
sg40
g41
sg42
S'gs4570'
p2089
sg44
S'2070'
p2090
ssS'bio13'
p2091
(dp2092
g8
S'clim'
p2093
sg10
I4326
sg11
S'yes'
p2094
sg13
S'gs4570.bio13'
p2095
sg15
I14
sg16
S'bio13'
p2096
sg18
S'Precipitation of Wettest Month'
p2097
sg20
S'climate'
p2098
sg22
S'2015-03-24 21:05:32'
p2099
sg24
S'../views/GTiff/clim.gs4570.bio13.tif'
p2100
sg26
S'45'
p2101
sg28
S'6130'
p2102
sg30
S'clim.gs4570.bio13.tif'
p2103
sg32
g33
sg34
g35
sg36
S'Precipitation of Wettest Month GS RCP45 2070'
p2104
sg38
S'clim.gs4570.bio13'
p2105
sg40
g41
sg42
S'gs4570'
p2106
sg44
S'2070'
p2107
ssS'bio14'
p2108
(dp2109
g8
S'clim'
p2110
sg10
I4326
sg11
S'yes'
p2111
sg13
S'gs4570.bio14'
p2112
sg15
I8
sg16
S'bio14'
p2113
sg18
S'Precipitation of Driest Month'
p2114
sg20
S'climate'
p2115
sg22
S'2015-03-24 21:05:32'
p2116
sg24
S'../views/GTiff/clim.gs4570.bio14.tif'
p2117
sg26
S'45'
p2118
sg28
S'6144'
p2119
sg30
S'clim.gs4570.bio14.tif'
p2120
sg32
g33
sg34
g35
sg36
S'Precipitation of Driest Month GS RCP45 2070'
p2121
sg38
S'clim.gs4570.bio14'
p2122
sg40
g41
sg42
S'gs4570'
p2123
sg44
S'2070'
p2124
ssS'bio15'
p2125
(dp2126
g8
S'clim'
p2127
sg10
I4326
sg11
S'yes'
p2128
sg13
S'gs4570.bio15'
p2129
sg15
I197
sg16
S'bio15'
p2130
sg18
S'Precipitation Seasonality (Coefficient of Variation)'
p2131
sg20
S'climate'
p2132
sg22
S'2015-03-24 21:05:32'
p2133
sg24
S'../views/GTiff/clim.gs4570.bio15.tif'
p2134
sg26
S'45'
p2135
sg28
S'6133'
p2136
sg30
S'clim.gs4570.bio15.tif'
p2137
sg32
g33
sg34
g35
sg36
S'Precipitation Seasonality (Coefficient of Variation) GS RCP45 2070'
p2138
sg38
S'clim.gs4570.bio15'
p2139
sg40
g41
sg42
S'gs4570'
p2140
sg44
S'2070'
p2141
ssS'bio16'
p2142
(dp2143
g8
S'clim'
p2144
sg10
I4326
sg11
S'yes'
p2145
sg13
S'gs4570.bio16'
p2146
sg15
I155
sg16
S'bio16'
p2147
sg18
S'Precipitation of Wettest Quarter'
p2148
sg20
S'climate'
p2149
sg22
S'2015-03-24 21:05:32'
p2150
sg24
S'../views/GTiff/clim.gs4570.bio16.tif'
p2151
sg26
S'45'
p2152
sg28
S'6132'
p2153
sg30
S'clim.gs4570.bio16.tif'
p2154
sg32
g33
sg34
g35
sg36
S'Precipitation of Wettest Quarter GS RCP45 2070'
p2155
sg38
S'clim.gs4570.bio16'
p2156
sg40
g41
sg42
S'gs4570'
p2157
sg44
S'2070'
p2158
ssS'bio17'
p2159
(dp2160
g8
S'clim'
p2161
sg10
I4326
sg11
S'yes'
p2162
sg13
S'gs4570.bio17'
p2163
sg15
I322
sg16
S'bio17'
p2164
sg18
S'Precipitation of Driest Quarter'
p2165
sg20
S'climate'
p2166
sg22
S'2015-03-24 21:05:32'
p2167
sg24
S'../views/GTiff/clim.gs4570.bio17.tif'
p2168
sg26
S'45'
p2169
sg28
S'6142'
p2170
sg30
S'clim.gs4570.bio17.tif'
p2171
sg32
g33
sg34
g35
sg36
S'Precipitation of Driest Quarter GS RCP45 2070'
p2172
sg38
S'clim.gs4570.bio17'
p2173
sg40
g41
sg42
S'gs4570'
p2174
sg44
S'2070'
p2175
ssS'bio18'
p2176
(dp2177
g8
S'clim'
p2178
sg10
I4326
sg11
S'yes'
p2179
sg13
S'gs4570.bio18'
p2180
sg15
I88
sg16
S'bio18'
p2181
sg18
S'Precipitation of Warmest Quarter'
p2182
sg20
S'climate'
p2183
sg22
S'2015-03-24 21:05:32'
p2184
sg24
S'../views/GTiff/clim.gs4570.bio18.tif'
p2185
sg26
S'45'
p2186
sg28
S'6143'
p2187
sg30
S'clim.gs4570.bio18.tif'
p2188
sg32
g33
sg34
g35
sg36
S'Precipitation of Warmest Quarter GS RCP45 2070'
p2189
sg38
S'clim.gs4570.bio18'
p2190
sg40
g41
sg42
S'gs4570'
p2191
sg44
S'2070'
p2192
ssS'bio19'
p2193
(dp2194
g8
S'clim'
p2195
sg10
I4326
sg11
S'yes'
p2196
sg13
S'gs4570.bio19'
p2197
sg15
I3
sg16
S'bio19'
p2198
sg18
S'Precipitation of Coldest Quarter'
p2199
sg20
S'climate'
p2200
sg22
S'2015-03-24 21:05:32'
p2201
sg24
S'../views/GTiff/clim.gs4570.bio19.tif'
p2202
sg26
S'45'
p2203
sg28
S'6129'
p2204
sg30
S'clim.gs4570.bio19.tif'
p2205
sg32
g33
sg34
g35
sg36
S'Precipitation of Coldest Quarter GS RCP45 2070'
p2206
sg38
S'clim.gs4570.bio19'
p2207
sg40
g41
sg42
g1970
sg44
S'2070'
p2208
ssS'bio04'
p2209
(dp2210
g8
S'clim'
p2211
sg10
I4326
sg11
S'yes'
p2212
sg13
S'gs4570.bio04'
p2213
sg15
I63
sg16
S'bio04'
p2214
sg18
S'Temperature Seasonality (standard deviation *100)'
p2215
sg20
S'climate'
p2216
sg22
S'2015-03-24 21:05:32'
p2217
sg24
S'../views/GTiff/clim.gs4570.bio04.tif'
p2218
sg26
S'45'
p2219
sg28
S'6138'
p2220
sg30
S'clim.gs4570.bio04.tif'
p2221
sg32
g33
sg34
g35
sg36
S'Temperature Seasonality (standard deviation *100) GS RCP45 2070'
p2222
sg38
S'clim.gs4570.bio04'
p2223
sg40
g41
sg42
S'gs4570'
p2224
sg44
S'2070'
p2225
ssS'bio08'
p2226
(dp2227
g8
S'clim'
p2228
sg10
I4326
sg11
S'yes'
p2229
sg13
S'gs4570.bio08'
p2230
sg15
I42
sg16
S'bio08'
p2231
sg18
S'Mean Temperature of Wettest Quarter'
p2232
sg20
S'climate'
p2233
sg22
S'2015-03-24 21:05:32'
p2234
sg24
S'../views/GTiff/clim.gs4570.bio08.tif'
p2235
sg26
S'45'
p2236
sg28
S'6146'
p2237
sg30
S'clim.gs4570.bio08.tif'
p2238
sg32
g33
sg34
g35
sg36
S'Mean Temperature of Wettest Quarter GS RCP45 2070'
p2239
sg38
S'clim.gs4570.bio08'
p2240
sg40
g41
sg42
S'gs4570'
p2241
sg44
S'2070'
p2242
ssS'bio03'
p2243
(dp2244
g8
S'clim'
p2245
sg10
I4326
sg11
S'yes'
p2246
sg13
S'gs4570.bio03'
p2247
sg15
I338
sg16
S'bio03'
p2248
sg18
S'Isothermality (BIO2/BIO7) (* 100)'
p2249
sg20
S'climate'
p2250
sg22
S'2015-03-24 21:05:32'
p2251
sg24
S'../views/GTiff/clim.gs4570.bio03.tif'
p2252
sg26
S'45'
p2253
sg28
S'6139'
p2254
sg30
S'clim.gs4570.bio03.tif'
p2255
sg32
g33
sg34
g35
sg36
S'Isothermality (BIO2/BIO7) (* 100) GS RCP45 2070'
p2256
sg38
S'clim.gs4570.bio03'
p2257
sg40
g41
sg42
S'gs4570'
p2258
sg44
S'2070'
p2259
ssS'bio09'
p2260
(dp2261
g8
S'clim'
p2262
sg10
I4326
sg11
S'yes'
p2263
sg13
S'gs4570.bio09'
p2264
sg15
I270
sg16
S'bio09'
p2265
sg18
S'Mean Temperature of Driest Quarter'
p2266
sg20
S'climate'
p2267
sg22
S'2015-03-24 21:05:32'
p2268
sg24
S'../views/GTiff/clim.gs4570.bio09.tif'
p2269
sg26
S'45'
p2270
sg28
S'6145'
p2271
sg30
S'clim.gs4570.bio09.tif'
p2272
sg32
g33
sg34
g35
sg36
S'Mean Temperature of Driest Quarter GS RCP45 2070'
p2273
sg38
S'clim.gs4570.bio09'
p2274
sg40
g41
sg42
S'gs4570'
p2275
sg44
S'2070'
p2276
ssS'bio02'
p2277
(dp2278
g8
S'clim'
p2279
sg10
I4326
sg11
S'yes'
p2280
sg13
S'gs4570.bio02'
p2281
sg15
I233
sg16
S'bio02'
p2282
sg18
S'Mean Diurnal Range (Mean of monthly (max temp - min temp))'
p2283
sg20
S'climate'
p2284
sg22
S'2015-03-24 21:05:32'
p2285
sg24
S'../views/GTiff/clim.gs4570.bio02.tif'
p2286
sg26
S'45'
p2287
sg28
S'6140'
p2288
sg30
S'clim.gs4570.bio02.tif'
p2289
sg32
g33
sg34
g35
sg36
S'Mean Diurnal Range (Mean of monthly (max temp - min temp)) GS RCP45 2070'
p2290
sg38
S'clim.gs4570.bio02'
p2291
sg40
g41
sg42
S'gs4570'
p2292
sg44
S'2070'
p2293
sssS'ac4570'
p2294
(dp2295
S'bio07'
p2296
(dp2297
g8
S'clim'
p2298
sg10
I4326
sg11
S'yes'
p2299
sg13
S'ac4570.bio07'
p2300
sg15
I57
sg16
S'bio07'
p2301
sg18
S'Temperature Annual Range (BIO5-BIO6)'
p2302
sg20
S'climate'
p2303
sg22
S'2015-03-24 21:05:32'
p2304
sg24
S'../views/GTiff/clim.ac4570.bio07.tif'
p2305
sg26
S'45'
p2306
sg28
S'6290'
p2307
sg30
S'clim.ac4570.bio07.tif'
p2308
sg32
g33
sg34
g35
sg36
S'Temperature Annual Range (BIO5-BIO6) AC RCP45 2070'
p2309
sg38
S'clim.ac4570.bio07'
p2310
sg40
g41
sg42
S'ac4570'
p2311
sg44
S'2070'
p2312
ssS'bio13'
p2313
(dp2314
g8
S'clim'
p2315
sg10
I4326
sg11
S'yes'
p2316
sg13
S'ac4570.bio13'
p2317
sg15
I66
sg16
S'bio13'
p2318
sg18
S'Precipitation of Wettest Month'
p2319
sg20
S'climate'
p2320
sg22
S'2015-03-24 21:05:32'
p2321
sg24
S'../views/GTiff/clim.ac4570.bio13.tif'
p2322
sg26
S'45'
p2323
sg28
S'6285'
p2324
sg30
S'clim.ac4570.bio13.tif'
p2325
sg32
g33
sg34
g35
sg36
S'Precipitation of Wettest Month AC RCP45 2070'
p2326
sg38
S'clim.ac4570.bio13'
p2327
sg40
g41
sg42
S'ac4570'
p2328
sg44
S'2070'
p2329
ssS'bio18'
p2330
(dp2331
g8
S'clim'
p2332
sg10
I4326
sg11
S'yes'
p2333
sg13
S'ac4570.bio18'
p2334
sg15
I21
sg16
S'bio18'
p2335
sg18
S'Precipitation of Warmest Quarter'
p2336
sg20
S'climate'
p2337
sg22
S'2015-03-24 21:05:32'
p2338
sg24
S'../views/GTiff/clim.ac4570.bio18.tif'
p2339
sg26
S'45'
p2340
sg28
S'6298'
p2341
sg30
S'clim.ac4570.bio18.tif'
p2342
sg32
g33
sg34
g35
sg36
S'Precipitation of Warmest Quarter AC RCP45 2070'
p2343
sg38
S'clim.ac4570.bio18'
p2344
sg40
g41
sg42
g2294
sg44
S'2070'
p2345
ssS'bio11'
p2346
(dp2347
g8
S'clim'
p2348
sg10
I4326
sg11
S'yes'
p2349
sg13
S'ac4570.bio11'
p2350
sg15
I44
sg16
S'bio11'
p2351
sg18
S'Mean Temperature of Coldest Quarter'
p2352
sg20
S'climate'
p2353
sg22
S'2015-03-24 21:05:32'
p2354
sg24
S'../views/GTiff/clim.ac4570.bio11.tif'
p2355
sg26
S'45'
p2356
sg28
S'6286'
p2357
sg30
S'clim.ac4570.bio11.tif'
p2358
sg32
g33
sg34
g35
sg36
S'Mean Temperature of Coldest Quarter AC RCP45 2070'
p2359
sg38
S'clim.ac4570.bio11'
p2360
sg40
g41
sg42
S'ac4570'
p2361
sg44
S'2070'
p2362
ssS'bio12'
p2363
(dp2364
g8
S'clim'
p2365
sg10
I4326
sg11
S'yes'
p2366
sg13
S'ac4570.bio12'
p2367
sg15
I33
sg16
S'bio12'
p2368
sg18
S'Annual Precipitation'
p2369
sg20
S'climate'
p2370
sg22
S'2015-03-24 21:05:32'
p2371
sg24
S'../views/GTiff/clim.ac4570.bio12.tif'
p2372
sg26
S'45'
p2373
sg28
S'6289'
p2374
sg30
S'clim.ac4570.bio12.tif'
p2375
sg32
g33
sg34
g35
sg36
S'Annual Precipitation AC RCP45 2070'
p2376
sg38
S'clim.ac4570.bio12'
p2377
sg40
g41
sg42
S'ac4570'
p2378
sg44
S'2070'
p2379
ssS'bio10'
p2380
(dp2381
g8
S'clim'
p2382
sg10
I4326
sg11
S'yes'
p2383
sg13
S'ac4570.bio10'
p2384
sg15
I207
sg16
S'bio10'
p2385
sg18
S'Mean Temperature of Warmest Quarter'
p2386
sg20
S'climate'
p2387
sg22
S'2015-03-24 21:05:32'
p2388
sg24
S'../views/GTiff/clim.ac4570.bio10.tif'
p2389
sg26
S'45'
p2390
sg28
S'6283'
p2391
sg30
S'clim.ac4570.bio10.tif'
p2392
sg32
g33
sg34
g35
sg36
S'Mean Temperature of Warmest Quarter AC RCP45 2070'
p2393
sg38
S'clim.ac4570.bio10'
p2394
sg40
g41
sg42
S'ac4570'
p2395
sg44
S'2070'
p2396
ssS'bio06'
p2397
(dp2398
g8
S'clim'
p2399
sg10
I4326
sg11
S'yes'
p2400
sg13
S'ac4570.bio06'
p2401
sg15
I227
sg16
S'bio06'
p2402
sg18
S'Min Temperature of Coldest Month'
p2403
sg20
S'climate'
p2404
sg22
S'2015-03-24 21:05:32'
p2405
sg24
S'../views/GTiff/clim.ac4570.bio06.tif'
p2406
sg26
S'45'
p2407
sg28
S'6291'
p2408
sg30
S'clim.ac4570.bio06.tif'
p2409
sg32
g33
sg34
g35
sg36
S'Min Temperature of Coldest Month AC RCP45 2070'
p2410
sg38
S'clim.ac4570.bio06'
p2411
sg40
g41
sg42
S'ac4570'
p2412
sg44
S'2070'
p2413
ssS'bio05'
p2414
(dp2415
g8
S'clim'
p2416
sg10
I4326
sg11
S'yes'
p2417
sg13
S'ac4570.bio05'
p2418
sg15
I60
sg16
S'bio05'
p2419
sg18
S'Max Temperature of Warmest Month'
p2420
sg20
S'climate'
p2421
sg22
S'2015-03-24 21:05:32'
p2422
sg24
S'../views/GTiff/clim.ac4570.bio05.tif'
p2423
sg26
S'45'
p2424
sg28
S'6292'
p2425
sg30
S'clim.ac4570.bio05.tif'
p2426
sg32
g33
sg34
g35
sg36
S'Max Temperature of Warmest Month AC RCP45 2070'
p2427
sg38
S'clim.ac4570.bio05'
p2428
sg40
g41
sg42
S'ac4570'
p2429
sg44
S'2070'
p2430
ssS'bio04'
p2431
(dp2432
g8
S'clim'
p2433
sg10
I4326
sg11
S'yes'
p2434
sg13
S'ac4570.bio04'
p2435
sg15
I323
sg16
S'bio04'
p2436
sg18
S'Temperature Seasonality (standard deviation *100)'
p2437
sg20
S'climate'
p2438
sg22
S'2015-03-24 21:05:32'
p2439
sg24
S'../views/GTiff/clim.ac4570.bio04.tif'
p2440
sg26
S'45'
p2441
sg28
S'6293'
p2442
sg30
S'clim.ac4570.bio04.tif'
p2443
sg32
g33
sg34
g35
sg36
S'Temperature Seasonality (standard deviation *100) AC RCP45 2070'
p2444
sg38
S'clim.ac4570.bio04'
p2445
sg40
g41
sg42
S'ac4570'
p2446
sg44
S'2070'
p2447
ssS'bio14'
p2448
(dp2449
g8
S'clim'
p2450
sg10
I4326
sg11
S'yes'
p2451
sg13
S'ac4570.bio14'
p2452
sg15
I267
sg16
S'bio14'
p2453
sg18
S'Precipitation of Driest Month'
p2454
sg20
S'climate'
p2455
sg22
S'2015-03-24 21:05:32'
p2456
sg24
S'../views/GTiff/clim.ac4570.bio14.tif'
p2457
sg26
S'45'
p2458
sg28
S'6299'
p2459
sg30
S'clim.ac4570.bio14.tif'
p2460
sg32
g33
sg34
g35
sg36
S'Precipitation of Driest Month AC RCP45 2070'
p2461
sg38
S'clim.ac4570.bio14'
p2462
sg40
g41
sg42
S'ac4570'
p2463
sg44
S'2070'
p2464
ssS'bio15'
p2465
(dp2466
g8
S'clim'
p2467
sg10
I4326
sg11
S'yes'
p2468
sg13
S'ac4570.bio15'
p2469
sg15
I85
sg16
S'bio15'
p2470
sg18
S'Precipitation Seasonality (Coefficient of Variation)'
p2471
sg20
S'climate'
p2472
sg22
S'2015-03-24 21:05:32'
p2473
sg24
S'../views/GTiff/clim.ac4570.bio15.tif'
p2474
sg26
S'45'
p2475
sg28
S'6288'
p2476
sg30
S'clim.ac4570.bio15.tif'
p2477
sg32
g33
sg34
g35
sg36
S'Precipitation Seasonality (Coefficient of Variation) AC RCP45 2070'
p2478
sg38
S'clim.ac4570.bio15'
p2479
sg40
g41
sg42
S'ac4570'
p2480
sg44
S'2070'
p2481
ssS'bio16'
p2482
(dp2483
g8
S'clim'
p2484
sg10
I4326
sg11
S'yes'
p2485
sg13
S'ac4570.bio16'
p2486
sg15
I325
sg16
S'bio16'
p2487
sg18
S'Precipitation of Wettest Quarter'
p2488
sg20
S'climate'
p2489
sg22
S'2015-03-24 21:05:32'
p2490
sg24
S'../views/GTiff/clim.ac4570.bio16.tif'
p2491
sg26
S'45'
p2492
sg28
S'6287'
p2493
sg30
S'clim.ac4570.bio16.tif'
p2494
sg32
g33
sg34
g35
sg36
S'Precipitation of Wettest Quarter AC RCP45 2070'
p2495
sg38
S'clim.ac4570.bio16'
p2496
sg40
g41
sg42
S'ac4570'
p2497
sg44
S'2070'
p2498
ssS'bio17'
p2499
(dp2500
g8
S'clim'
p2501
sg10
I4326
sg11
S'yes'
p2502
sg13
S'ac4570.bio17'
p2503
sg15
I87
sg16
S'bio17'
p2504
sg18
S'Precipitation of Driest Quarter'
p2505
sg20
S'climate'
p2506
sg22
S'2015-03-24 21:05:32'
p2507
sg24
S'../views/GTiff/clim.ac4570.bio17.tif'
p2508
sg26
S'45'
p2509
sg28
S'6297'
p2510
sg30
S'clim.ac4570.bio17.tif'
p2511
sg32
g33
sg34
g35
sg36
S'Precipitation of Driest Quarter AC RCP45 2070'
p2512
sg38
S'clim.ac4570.bio17'
p2513
sg40
g41
sg42
S'ac4570'
p2514
sg44
S'2070'
p2515
ssS'bio01'
p2516
(dp2517
g8
S'clim'
p2518
sg10
I4326
sg11
S'yes'
p2519
sg13
S'ac4570.bio01'
p2520
sg15
I173
sg16
S'bio01'
p2521
sg18
S'Annual Mean Temperature'
p2522
sg20
S'climate'
p2523
sg22
S'2015-03-24 21:05:32'
p2524
sg24
S'../views/GTiff/clim.ac4570.bio01.tif'
p2525
sg26
S'45'
p2526
sg28
S'6296'
p2527
sg30
S'clim.ac4570.bio01.tif'
p2528
sg32
g33
sg34
g35
sg36
S'Annual Mean Temperature AC RCP45 2070'
p2529
sg38
S'clim.ac4570.bio01'
p2530
sg40
g41
sg42
S'ac4570'
p2531
sg44
S'2070'
p2532
ssS'bio19'
p2533
(dp2534
g8
S'clim'
p2535
sg10
I4326
sg11
S'yes'
p2536
sg13
S'ac4570.bio19'
p2537
sg15
I144
sg16
S'bio19'
p2538
sg18
S'Precipitation of Coldest Quarter'
p2539
sg20
S'climate'
p2540
sg22
S'2015-03-24 21:05:32'
p2541
sg24
S'../views/GTiff/clim.ac4570.bio19.tif'
p2542
sg26
S'45'
p2543
sg28
S'6284'
p2544
sg30
S'clim.ac4570.bio19.tif'
p2545
sg32
g33
sg34
g35
sg36
S'Precipitation of Coldest Quarter AC RCP45 2070'
p2546
sg38
S'clim.ac4570.bio19'
p2547
sg40
g41
sg42
S'ac4570'
p2548
sg44
S'2070'
p2549
ssS'bio08'
p2550
(dp2551
g8
S'clim'
p2552
sg10
I4326
sg11
S'yes'
p2553
sg13
S'ac4570.bio08'
p2554
sg15
I167
sg16
S'bio08'
p2555
sg18
S'Mean Temperature of Wettest Quarter'
p2556
sg20
S'climate'
p2557
sg22
S'2015-03-24 21:05:32'
p2558
sg24
S'../views/GTiff/clim.ac4570.bio08.tif'
p2559
sg26
S'45'
p2560
sg28
S'6301'
p2561
sg30
S'clim.ac4570.bio08.tif'
p2562
sg32
g33
sg34
g35
sg36
S'Mean Temperature of Wettest Quarter AC RCP45 2070'
p2563
sg38
S'clim.ac4570.bio08'
p2564
sg40
g41
sg42
S'ac4570'
p2565
sg44
S'2070'
p2566
ssS'bio03'
p2567
(dp2568
g8
S'clim'
p2569
sg10
I4326
sg11
S'yes'
p2570
sg13
S'ac4570.bio03'
p2571
sg15
I304
sg16
S'bio03'
p2572
sg18
S'Isothermality (BIO2/BIO7) (* 100)'
p2573
sg20
S'climate'
p2574
sg22
S'2015-03-24 21:05:32'
p2575
sg24
S'../views/GTiff/clim.ac4570.bio03.tif'
p2576
sg26
S'45'
p2577
sg28
S'6294'
p2578
sg30
S'clim.ac4570.bio03.tif'
p2579
sg32
g33
sg34
g35
sg36
S'Isothermality (BIO2/BIO7) (* 100) AC RCP45 2070'
p2580
sg38
S'clim.ac4570.bio03'
p2581
sg40
g41
sg42
S'ac4570'
p2582
sg44
S'2070'
p2583
ssS'bio09'
p2584
(dp2585
g8
S'clim'
p2586
sg10
I4326
sg11
S'yes'
p2587
sg13
S'ac4570.bio09'
p2588
sg15
I141
sg16
S'bio09'
p2589
sg18
S'Mean Temperature of Driest Quarter'
p2590
sg20
S'climate'
p2591
sg22
S'2015-03-24 21:05:32'
p2592
sg24
S'../views/GTiff/clim.ac4570.bio09.tif'
p2593
sg26
S'45'
p2594
sg28
S'6300'
p2595
sg30
S'clim.ac4570.bio09.tif'
p2596
sg32
g33
sg34
g35
sg36
S'Mean Temperature of Driest Quarter AC RCP45 2070'
p2597
sg38
S'clim.ac4570.bio09'
p2598
sg40
g41
sg42
S'ac4570'
p2599
sg44
S'2070'
p2600
ssS'bio02'
p2601
(dp2602
g8
S'clim'
p2603
sg10
I4326
sg11
S'yes'
p2604
sg13
S'ac4570.bio02'
p2605
sg15
I278
sg16
S'bio02'
p2606
sg18
S'Mean Diurnal Range (Mean of monthly (max temp - min temp))'
p2607
sg20
S'climate'
p2608
sg22
S'2015-03-24 21:05:32'
p2609
sg24
S'../views/GTiff/clim.ac4570.bio02.tif'
p2610
sg26
S'45'
p2611
sg28
S'6295'
p2612
sg30
S'clim.ac4570.bio02.tif'
p2613
sg32
g33
sg34
g35
sg36
S'Mean Diurnal Range (Mean of monthly (max temp - min temp)) AC RCP45 2070'
p2614
sg38
S'clim.ac4570.bio02'
p2615
sg40
g41
sg42
S'ac4570'
p2616
sg44
S'2070'
p2617
sssS'gd4570'
p2618
(dp2619
S'bio07'
p2620
(dp2621
g8
S'clim'
p2622
sg10
I4326
sg11
S'yes'
p2623
sg13
S'gd4570.bio07'
p2624
sg15
I51
sg16
S'bio07'
p2625
sg18
S'Temperature Annual Range (BIO5-BIO6)'
p2626
sg20
S'climate'
p2627
sg22
S'2015-03-24 21:05:32'
p2628
sg24
S'../views/GTiff/clim.gd4570.bio07.tif'
p2629
sg26
S'45'
p2630
sg28
S'6309'
p2631
sg30
S'clim.gd4570.bio07.tif'
p2632
sg32
g33
sg34
g35
sg36
S'Temperature Annual Range (BIO5-BIO6) GD RCP45 2070'
p2633
sg38
S'clim.gd4570.bio07'
p2634
sg40
g41
sg42
S'gd4570'
p2635
sg44
S'2070'
p2636
ssS'bio16'
p2637
(dp2638
g8
S'clim'
p2639
sg10
I4326
sg11
S'yes'
p2640
sg13
S'gd4570.bio16'
p2641
sg15
I174
sg16
S'bio16'
p2642
sg18
S'Precipitation of Wettest Quarter'
p2643
sg20
S'climate'
p2644
sg22
S'2015-03-24 21:05:32'
p2645
sg24
S'../views/GTiff/clim.gd4570.bio16.tif'
p2646
sg26
S'45'
p2647
sg28
S'6306'
p2648
sg30
S'clim.gd4570.bio16.tif'
p2649
sg32
g33
sg34
g35
sg36
S'Precipitation of Wettest Quarter GD RCP45 2070'
p2650
sg38
S'clim.gd4570.bio16'
p2651
sg40
g41
sg42
S'gd4570'
p2652
sg44
S'2070'
p2653
ssS'bio11'
p2654
(dp2655
g8
S'clim'
p2656
sg10
I4326
sg11
S'yes'
p2657
sg13
S'gd4570.bio11'
p2658
sg15
I45
sg16
S'bio11'
p2659
sg18
S'Mean Temperature of Coldest Quarter'
p2660
sg20
S'climate'
p2661
sg22
S'2015-03-24 21:05:32'
p2662
sg24
S'../views/GTiff/clim.gd4570.bio11.tif'
p2663
sg26
S'45'
p2664
sg28
S'6305'
p2665
sg30
S'clim.gd4570.bio11.tif'
p2666
sg32
g33
sg34
g35
sg36
S'Mean Temperature of Coldest Quarter GD RCP45 2070'
p2667
sg38
S'clim.gd4570.bio11'
p2668
sg40
g41
sg42
S'gd4570'
p2669
sg44
S'2070'
p2670
ssS'bio09'
p2671
(dp2672
g8
S'clim'
p2673
sg10
I4326
sg11
S'yes'
p2674
sg13
S'gd4570.bio09'
p2675
sg15
I176
sg16
S'bio09'
p2676
sg18
S'Mean Temperature of Driest Quarter'
p2677
sg20
S'climate'
p2678
sg22
S'2015-03-24 21:05:32'
p2679
sg24
S'../views/GTiff/clim.gd4570.bio09.tif'
p2680
sg26
S'45'
p2681
sg28
S'6319'
p2682
sg30
S'clim.gd4570.bio09.tif'
p2683
sg32
g33
sg34
g35
sg36
S'Mean Temperature of Driest Quarter GD RCP45 2070'
p2684
sg38
S'clim.gd4570.bio09'
p2685
sg40
g41
sg42
S'gd4570'
p2686
sg44
S'2070'
p2687
ssS'bio05'
p2688
(dp2689
g8
S'clim'
p2690
sg10
I4326
sg11
S'yes'
p2691
sg13
S'gd4570.bio05'
p2692
sg15
I119
sg16
S'bio05'
p2693
sg18
S'Max Temperature of Warmest Month'
p2694
sg20
S'climate'
p2695
sg22
S'2015-03-24 21:05:32'
p2696
sg24
S'../views/GTiff/clim.gd4570.bio05.tif'
p2697
sg26
S'45'
p2698
sg28
S'6311'
p2699
sg30
S'clim.gd4570.bio05.tif'
p2700
sg32
g33
sg34
g35
sg36
S'Max Temperature of Warmest Month GD RCP45 2070'
p2701
sg38
S'clim.gd4570.bio05'
p2702
sg40
g41
sg42
S'gd4570'
p2703
sg44
S'2070'
p2704
ssS'bio14'
p2705
(dp2706
g8
S'clim'
p2707
sg10
I4326
sg11
S'yes'
p2708
sg13
S'gd4570.bio14'
p2709
sg15
I218
sg16
S'bio14'
p2710
sg18
S'Precipitation of Driest Month'
p2711
sg20
S'climate'
p2712
sg22
S'2015-03-24 21:05:32'
p2713
sg24
S'../views/GTiff/clim.gd4570.bio14.tif'
p2714
sg26
S'45'
p2715
sg28
S'6318'
p2716
sg30
S'clim.gd4570.bio14.tif'
p2717
sg32
g33
sg34
g35
sg36
S'Precipitation of Driest Month GD RCP45 2070'
p2718
sg38
S'clim.gd4570.bio14'
p2719
sg40
g41
sg42
S'gd4570'
p2720
sg44
S'2070'
p2721
ssS'bio10'
p2722
(dp2723
g8
S'clim'
p2724
sg10
I4326
sg11
S'yes'
p2725
sg13
S'gd4570.bio10'
p2726
sg15
I117
sg16
S'bio10'
p2727
sg18
S'Mean Temperature of Warmest Quarter'
p2728
sg20
S'climate'
p2729
sg22
S'2015-03-24 21:05:32'
p2730
sg24
S'../views/GTiff/clim.gd4570.bio10.tif'
p2731
sg26
S'45'
p2732
sg28
S'6302'
p2733
sg30
S'clim.gd4570.bio10.tif'
p2734
sg32
g33
sg34
g35
sg36
S'Mean Temperature of Warmest Quarter GD RCP45 2070'
p2735
sg38
S'clim.gd4570.bio10'
p2736
sg40
g41
sg42
S'gd4570'
p2737
sg44
S'2070'
p2738
ssS'bio06'
p2739
(dp2740
g8
S'clim'
p2741
sg10
I4326
sg11
S'yes'
p2742
sg13
S'gd4570.bio06'
p2743
sg15
I290
sg16
S'bio06'
p2744
sg18
S'Min Temperature of Coldest Month'
p2745
sg20
S'climate'
p2746
sg22
S'2015-03-24 21:05:32'
p2747
sg24
S'../views/GTiff/clim.gd4570.bio06.tif'
p2748
sg26
S'45'
p2749
sg28
S'6310'
p2750
sg30
S'clim.gd4570.bio06.tif'
p2751
sg32
g33
sg34
g35
sg36
S'Min Temperature of Coldest Month GD RCP45 2070'
p2752
sg38
S'clim.gd4570.bio06'
p2753
sg40
g41
sg42
S'gd4570'
p2754
sg44
S'2070'
p2755
ssS'bio12'
p2756
(dp2757
g8
S'clim'
p2758
sg10
I4326
sg11
S'yes'
p2759
sg13
S'gd4570.bio12'
p2760
sg15
I332
sg16
S'bio12'
p2761
sg18
S'Annual Precipitation'
p2762
sg20
S'climate'
p2763
sg22
S'2015-03-24 21:05:32'
p2764
sg24
S'../views/GTiff/clim.gd4570.bio12.tif'
p2765
sg26
S'45'
p2766
sg28
S'6308'
p2767
sg30
S'clim.gd4570.bio12.tif'
p2768
sg32
g33
sg34
g35
sg36
S'Annual Precipitation GD RCP45 2070'
p2769
sg38
S'clim.gd4570.bio12'
p2770
sg40
g41
sg42
S'gd4570'
p2771
sg44
S'2070'
p2772
ssS'bio13'
p2773
(dp2774
g8
S'clim'
p2775
sg10
I4326
sg11
S'yes'
p2776
sg13
S'gd4570.bio13'
p2777
sg15
I276
sg16
S'bio13'
p2778
sg18
S'Precipitation of Wettest Month'
p2779
sg20
S'climate'
p2780
sg22
S'2015-03-24 21:05:32'
p2781
sg24
S'../views/GTiff/clim.gd4570.bio13.tif'
p2782
sg26
S'45'
p2783
sg28
S'6304'
p2784
sg30
S'clim.gd4570.bio13.tif'
p2785
sg32
g33
sg34
g35
sg36
S'Precipitation of Wettest Month GD RCP45 2070'
p2786
sg38
S'clim.gd4570.bio13'
p2787
sg40
g41
sg42
S'gd4570'
p2788
sg44
S'2070'
p2789
ssS'bio03'
p2790
(dp2791
g8
S'clim'
p2792
sg10
I4326
sg11
S'yes'
p2793
sg13
S'gd4570.bio03'
p2794
sg15
I132
sg16
S'bio03'
p2795
sg18
S'Isothermality (BIO2/BIO7) (* 100)'
p2796
sg20
S'climate'
p2797
sg22
S'2015-03-24 21:05:32'
p2798
sg24
S'../views/GTiff/clim.gd4570.bio03.tif'
p2799
sg26
S'45'
p2800
sg28
S'6313'
p2801
sg30
S'clim.gd4570.bio03.tif'
p2802
sg32
g33
sg34
g35
sg36
S'Isothermality (BIO2/BIO7) (* 100) GD RCP45 2070'
p2803
sg38
S'clim.gd4570.bio03'
p2804
sg40
g41
sg42
S'gd4570'
p2805
sg44
S'2070'
p2806
ssS'bio15'
p2807
(dp2808
g8
S'clim'
p2809
sg10
I4326
sg11
S'yes'
p2810
sg13
S'gd4570.bio15'
p2811
sg15
I152
sg16
S'bio15'
p2812
sg18
S'Precipitation Seasonality (Coefficient of Variation)'
p2813
sg20
S'climate'
p2814
sg22
S'2015-03-24 21:05:32'
p2815
sg24
S'../views/GTiff/clim.gd4570.bio15.tif'
p2816
sg26
S'45'
p2817
sg28
S'6307'
p2818
sg30
S'clim.gd4570.bio15.tif'
p2819
sg32
g33
sg34
g35
sg36
S'Precipitation Seasonality (Coefficient of Variation) GD RCP45 2070'
p2820
sg38
S'clim.gd4570.bio15'
p2821
sg40
g41
sg42
S'gd4570'
p2822
sg44
S'2070'
p2823
ssS'bio01'
p2824
(dp2825
g8
S'clim'
p2826
sg10
I4326
sg11
S'yes'
p2827
sg13
S'gd4570.bio01'
p2828
sg15
I268
sg16
S'bio01'
p2829
sg18
S'Annual Mean Temperature'
p2830
sg20
S'climate'
p2831
sg22
S'2015-03-24 21:05:32'
p2832
sg24
S'../views/GTiff/clim.gd4570.bio01.tif'
p2833
sg26
S'45'
p2834
sg28
S'6315'
p2835
sg30
S'clim.gd4570.bio01.tif'
p2836
sg32
g33
sg34
g35
sg36
S'Annual Mean Temperature GD RCP45 2070'
p2837
sg38
S'clim.gd4570.bio01'
p2838
sg40
g41
sg42
S'gd4570'
p2839
sg44
S'2070'
p2840
ssS'bio17'
p2841
(dp2842
g8
S'clim'
p2843
sg10
I4326
sg11
S'yes'
p2844
sg13
S'gd4570.bio17'
p2845
sg15
I9
sg16
S'bio17'
p2846
sg18
S'Precipitation of Driest Quarter'
p2847
sg20
S'climate'
p2848
sg22
S'2015-03-24 21:05:32'
p2849
sg24
S'../views/GTiff/clim.gd4570.bio17.tif'
p2850
sg26
S'45'
p2851
sg28
S'6316'
p2852
sg30
S'clim.gd4570.bio17.tif'
p2853
sg32
g33
sg34
g35
sg36
S'Precipitation of Driest Quarter GD RCP45 2070'
p2854
sg38
S'clim.gd4570.bio17'
p2855
sg40
g41
sg42
g2618
sg44
S'2070'
p2856
ssS'bio18'
p2857
(dp2858
g8
S'clim'
p2859
sg10
I4326
sg11
S'yes'
p2860
sg13
S'gd4570.bio18'
p2861
sg15
I251
sg16
S'bio18'
p2862
sg18
S'Precipitation of Warmest Quarter'
p2863
sg20
S'climate'
p2864
sg22
S'2015-03-24 21:05:32'
p2865
sg24
S'../views/GTiff/clim.gd4570.bio18.tif'
p2866
sg26
S'45'
p2867
sg28
S'6317'
p2868
sg30
S'clim.gd4570.bio18.tif'
p2869
sg32
g33
sg34
g35
sg36
S'Precipitation of Warmest Quarter GD RCP45 2070'
p2870
sg38
S'clim.gd4570.bio18'
p2871
sg40
g41
sg42
S'gd4570'
p2872
sg44
S'2070'
p2873
ssS'bio19'
p2874
(dp2875
g8
S'clim'
p2876
sg10
I4326
sg11
S'yes'
p2877
sg13
S'gd4570.bio19'
p2878
sg15
I301
sg16
S'bio19'
p2879
sg18
S'Precipitation of Coldest Quarter'
p2880
sg20
S'climate'
p2881
sg22
S'2015-03-24 21:05:32'
p2882
sg24
S'../views/GTiff/clim.gd4570.bio19.tif'
p2883
sg26
S'45'
p2884
sg28
S'6303'
p2885
sg30
S'clim.gd4570.bio19.tif'
p2886
sg32
g33
sg34
g35
sg36
S'Precipitation of Coldest Quarter GD RCP45 2070'
p2887
sg38
S'clim.gd4570.bio19'
p2888
sg40
g41
sg42
S'gd4570'
p2889
sg44
S'2070'
p2890
ssS'bio08'
p2891
(dp2892
g8
S'clim'
p2893
sg10
I4326
sg11
S'yes'
p2894
sg13
S'gd4570.bio08'
p2895
sg15
I62
sg16
S'bio08'
p2896
sg18
S'Mean Temperature of Wettest Quarter'
p2897
sg20
S'climate'
p2898
sg22
S'2015-03-24 21:05:32'
p2899
sg24
S'../views/GTiff/clim.gd4570.bio08.tif'
p2900
sg26
S'45'
p2901
sg28
S'6320'
p2902
sg30
S'clim.gd4570.bio08.tif'
p2903
sg32
g33
sg34
g35
sg36
S'Mean Temperature of Wettest Quarter GD RCP45 2070'
p2904
sg38
S'clim.gd4570.bio08'
p2905
sg40
g41
sg42
S'gd4570'
p2906
sg44
S'2070'
p2907
ssS'bio04'
p2908
(dp2909
g8
S'clim'
p2910
sg10
I4326
sg11
S'yes'
p2911
sg13
S'gd4570.bio04'
p2912
sg15
I52
sg16
S'bio04'
p2913
sg18
S'Temperature Seasonality (standard deviation *100)'
p2914
sg20
S'climate'
p2915
sg22
S'2015-03-24 21:05:32'
p2916
sg24
S'../views/GTiff/clim.gd4570.bio04.tif'
p2917
sg26
S'45'
p2918
sg28
S'6312'
p2919
sg30
S'clim.gd4570.bio04.tif'
p2920
sg32
g33
sg34
g35
sg36
S'Temperature Seasonality (standard deviation *100) GD RCP45 2070'
p2921
sg38
S'clim.gd4570.bio04'
p2922
sg40
g41
sg42
S'gd4570'
p2923
sg44
S'2070'
p2924
ssS'bio02'
p2925
(dp2926
g8
S'clim'
p2927
sg10
I4326
sg11
S'yes'
p2928
sg13
S'gd4570.bio02'
p2929
sg15
I138
sg16
S'bio02'
p2930
sg18
S'Mean Diurnal Range (Mean of monthly (max temp - min temp))'
p2931
sg20
S'climate'
p2932
sg22
S'2015-03-24 21:05:32'
p2933
sg24
S'../views/GTiff/clim.gd4570.bio02.tif'
p2934
sg26
S'45'
p2935
sg28
S'6314'
p2936
sg30
S'clim.gd4570.bio02.tif'
p2937
sg32
g33
sg34
g35
sg36
S'Mean Diurnal Range (Mean of monthly (max temp - min temp)) GD RCP45 2070'
p2938
sg38
S'clim.gd4570.bio02'
p2939
sg40
g41
sg42
S'gd4570'
p2940
sg44
S'2070'
p2941
sssS'hhe4570'
p2942
(dp2943
S'bio07'
p2944
(dp2945
g8
S'clim'
p2946
sg10
I4326
sg11
S'no'
p2947
sg13
S'hhe4570.bio07'
p2948
sg15
I100
sg16
S'bio07'
p2949
sg18
S'Temperature Annual Range (BIO5-BIO6)'
p2950
sg20
S'climate'
p2951
sg22
S'2015-03-24 21:05:32'
p2952
sg24
S'../views/GTiff/clim.hhe4570.bio07.tif'
p2953
sg26
S'45'
p2954
sg28
S'6605'
p2955
sg30
S'clim.hhe4570.bio07.tif'
p2956
sg32
g33
sg34
g35
sg36
S'Temperature Annual Range (BIO5-BIO6) HE RCP45 2070'
p2957
sg38
S'clim.hhe4570.bio07'
p2958
sg40
g41
sg42
S'hhe4570'
p2959
sg44
S'2070'
p2960
ssS'bio19'
p2961
(dp2962
g8
S'clim'
p2963
sg10
I4326
sg11
S'yes'
p2964
sg13
S'hhe4570.bio19'
p2965
sg15
I10
sg16
S'bio19'
p2966
sg18
S'Precipitation of Coldest Quarter'
p2967
sg20
S'climate'
p2968
sg22
S'2015-03-24 21:05:32'
p2969
sg24
S'../views/GTiff/clim.hhe4570.bio19.tif'
p2970
sg26
S'45'
p2971
sg28
S'6599'
p2972
sg30
S'clim.hhe4570.bio19.tif'
p2973
sg32
g33
sg34
g35
sg36
S'Precipitation of Coldest Quarter HE RCP45 2070'
p2974
sg38
S'clim.hhe4570.bio19'
p2975
sg40
g41
sg42
S'hhe4570'
p2976
sg44
S'2070'
p2977
ssS'bio01'
p2978
(dp2979
g8
S'clim'
p2980
sg10
I4326
sg11
S'no'
p2981
sg13
S'hhe4570.bio01'
p2982
sg15
I179
sg16
S'bio01'
p2983
sg18
S'Annual Mean Temperature'
p2984
sg20
S'climate'
p2985
sg22
S'2015-03-24 21:05:32'
p2986
sg24
S'../views/GTiff/clim.hhe4570.bio01.tif'
p2987
sg26
S'45'
p2988
sg28
S'6611'
p2989
sg30
S'clim.hhe4570.bio01.tif'
p2990
sg32
g33
sg34
g35
sg36
S'Annual Mean Temperature HE RCP45 2070'
p2991
sg38
S'clim.hhe4570.bio01'
p2992
sg40
g41
sg42
S'hhe4570'
p2993
sg44
S'2070'
p2994
ssS'bio11'
p2995
(dp2996
g8
S'clim'
p2997
sg10
I4326
sg11
S'yes'
p2998
sg13
S'hhe4570.bio11'
p2999
sg15
I7
sg16
S'bio11'
p3000
sg18
S'Mean Temperature of Coldest Quarter'
p3001
sg20
S'climate'
p3002
sg22
S'2015-03-24 21:05:32'
p3003
sg24
S'../views/GTiff/clim.hhe4570.bio11.tif'
p3004
sg26
S'45'
p3005
sg28
S'6601'
p3006
sg30
S'clim.hhe4570.bio11.tif'
p3007
sg32
g33
sg34
g35
sg36
S'Mean Temperature of Coldest Quarter HE RCP45 2070'
p3008
sg38
S'clim.hhe4570.bio11'
p3009
sg40
g41
sg42
g2942
sg44
S'2070'
p3010
ssS'bio05'
p3011
(dp3012
g8
S'clim'
p3013
sg10
I4326
sg11
S'yes'
p3014
sg13
S'hhe4570.bio05'
p3015
sg15
I19
sg16
S'bio05'
p3016
sg18
S'Max Temperature of Warmest Month'
p3017
sg20
S'climate'
p3018
sg22
S'2015-03-24 21:05:32'
p3019
sg24
S'../views/GTiff/clim.hhe4570.bio05.tif'
p3020
sg26
S'45'
p3021
sg28
S'6607'
p3022
sg30
S'clim.hhe4570.bio05.tif'
p3023
sg32
g33
sg34
g35
sg36
S'Max Temperature of Warmest Month HE RCP45 2070'
p3024
sg38
S'clim.hhe4570.bio05'
p3025
sg40
g41
sg42
S'hhe4570'
p3026
sg44
S'2070'
p3027
ssS'bio10'
p3028
(dp3029
g8
S'clim'
p3030
sg10
I4326
sg11
S'yes'
p3031
sg13
S'hhe4570.bio10'
p3032
sg15
I122
sg16
S'bio10'
p3033
sg18
S'Mean Temperature of Warmest Quarter'
p3034
sg20
S'climate'
p3035
sg22
S'2015-03-24 21:05:32'
p3036
sg24
S'../views/GTiff/clim.hhe4570.bio10.tif'
p3037
sg26
S'45'
p3038
sg28
S'6598'
p3039
sg30
S'clim.hhe4570.bio10.tif'
p3040
sg32
g33
sg34
g35
sg36
S'Mean Temperature of Warmest Quarter HE RCP45 2070'
p3041
sg38
S'clim.hhe4570.bio10'
p3042
sg40
g41
sg42
S'hhe4570'
p3043
sg44
S'2070'
p3044
ssS'bio06'
p3045
(dp3046
g8
S'clim'
p3047
sg10
I4326
sg11
S'yes'
p3048
sg13
S'hhe4570.bio06'
p3049
sg15
I140
sg16
S'bio06'
p3050
sg18
S'Min Temperature of Coldest Month'
p3051
sg20
S'climate'
p3052
sg22
S'2015-03-24 21:05:32'
p3053
sg24
S'../views/GTiff/clim.hhe4570.bio06.tif'
p3054
sg26
S'45'
p3055
sg28
S'6606'
p3056
sg30
S'clim.hhe4570.bio06.tif'
p3057
sg32
g33
sg34
g35
sg36
S'Min Temperature of Coldest Month HE RCP45 2070'
p3058
sg38
S'clim.hhe4570.bio06'
p3059
sg40
g41
sg42
S'hhe4570'
p3060
sg44
S'2070'
p3061
ssS'bio12'
p3062
(dp3063
g8
S'clim'
p3064
sg10
I4326
sg11
S'no'
p3065
sg13
S'hhe4570.bio12'
p3066
sg15
I125
sg16
S'bio12'
p3067
sg18
S'Annual Precipitation'
p3068
sg20
S'climate'
p3069
sg22
S'2015-03-24 21:05:32'
p3070
sg24
S'../views/GTiff/clim.hhe4570.bio12.tif'
p3071
sg26
S'45'
p3072
sg28
S'6604'
p3073
sg30
S'clim.hhe4570.bio12.tif'
p3074
sg32
g33
sg34
g35
sg36
S'Annual Precipitation HE RCP45 2070'
p3075
sg38
S'clim.hhe4570.bio12'
p3076
sg40
g41
sg42
S'hhe4570'
p3077
sg44
S'2070'
p3078
ssS'bio13'
p3079
(dp3080
g8
S'clim'
p3081
sg10
I4326
sg11
S'yes'
p3082
sg13
S'hhe4570.bio13'
p3083
sg15
I81
sg16
S'bio13'
p3084
sg18
S'Precipitation of Wettest Month'
p3085
sg20
S'climate'
p3086
sg22
S'2015-03-24 21:05:32'
p3087
sg24
S'../views/GTiff/clim.hhe4570.bio13.tif'
p3088
sg26
S'45'
p3089
sg28
S'6600'
p3090
sg30
S'clim.hhe4570.bio13.tif'
p3091
sg32
g33
sg34
g35
sg36
S'Precipitation of Wettest Month HE RCP45 2070'
p3092
sg38
S'clim.hhe4570.bio13'
p3093
sg40
g41
sg42
S'hhe4570'
p3094
sg44
S'2070'
p3095
ssS'bio14'
p3096
(dp3097
g8
S'clim'
p3098
sg10
I4326
sg11
S'yes'
p3099
sg13
S'hhe4570.bio14'
p3100
sg15
I191
sg16
S'bio14'
p3101
sg18
S'Precipitation of Driest Month'
p3102
sg20
S'climate'
p3103
sg22
S'2015-03-24 21:05:32'
p3104
sg24
S'../views/GTiff/clim.hhe4570.bio14.tif'
p3105
sg26
S'45'
p3106
sg28
S'6614'
p3107
sg30
S'clim.hhe4570.bio14.tif'
p3108
sg32
g33
sg34
g35
sg36
S'Precipitation of Driest Month HE RCP45 2070'
p3109
sg38
S'clim.hhe4570.bio14'
p3110
sg40
g41
sg42
S'hhe4570'
p3111
sg44
S'2070'
p3112
ssS'bio15'
p3113
(dp3114
g8
S'clim'
p3115
sg10
I4326
sg11
S'no'
p3116
sg13
S'hhe4570.bio15'
p3117
sg15
I272
sg16
S'bio15'
p3118
sg18
S'Precipitation Seasonality (Coefficient of Variation)'
p3119
sg20
S'climate'
p3120
sg22
S'2015-03-24 21:05:32'
p3121
sg24
S'../views/GTiff/clim.hhe4570.bio15.tif'
p3122
sg26
S'45'
p3123
sg28
S'6603'
p3124
sg30
S'clim.hhe4570.bio15.tif'
p3125
sg32
g33
sg34
g35
sg36
S'Precipitation Seasonality (Coefficient of Variation) HE RCP45 2070'
p3126
sg38
S'clim.hhe4570.bio15'
p3127
sg40
g41
sg42
S'hhe4570'
p3128
sg44
S'2070'
p3129
ssS'bio16'
p3130
(dp3131
g8
S'clim'
p3132
sg10
I4326
sg11
S'yes'
p3133
sg13
S'hhe4570.bio16'
p3134
sg15
I300
sg16
S'bio16'
p3135
sg18
S'Precipitation of Wettest Quarter'
p3136
sg20
S'climate'
p3137
sg22
S'2015-03-24 21:05:32'
p3138
sg24
S'../views/GTiff/clim.hhe4570.bio16.tif'
p3139
sg26
S'45'
p3140
sg28
S'6602'
p3141
sg30
S'clim.hhe4570.bio16.tif'
p3142
sg32
g33
sg34
g35
sg36
S'Precipitation of Wettest Quarter HE RCP45 2070'
p3143
sg38
S'clim.hhe4570.bio16'
p3144
sg40
g41
sg42
S'hhe4570'
p3145
sg44
S'2070'
p3146
ssS'bio17'
p3147
(dp3148
g8
S'clim'
p3149
sg10
I4326
sg11
S'yes'
p3150
sg13
S'hhe4570.bio17'
p3151
sg15
I220
sg16
S'bio17'
p3152
sg18
S'Precipitation of Driest Quarter'
p3153
sg20
S'climate'
p3154
sg22
S'2015-03-24 21:05:32'
p3155
sg24
S'../views/GTiff/clim.hhe4570.bio17.tif'
p3156
sg26
S'45'
p3157
sg28
S'6612'
p3158
sg30
S'clim.hhe4570.bio17.tif'
p3159
sg32
g33
sg34
g35
sg36
S'Precipitation of Driest Quarter HE RCP45 2070'
p3160
sg38
S'clim.hhe4570.bio17'
p3161
sg40
g41
sg42
S'hhe4570'
p3162
sg44
S'2070'
p3163
ssS'bio18'
p3164
(dp3165
g8
S'clim'
p3166
sg10
I4326
sg11
S'no'
p3167
sg13
S'hhe4570.bio18'
p3168
sg15
I288
sg16
S'bio18'
p3169
sg18
S'Precipitation of Warmest Quarter'
p3170
sg20
S'climate'
p3171
sg22
S'2015-03-24 21:05:32'
p3172
sg24
S'../views/GTiff/clim.hhe4570.bio18.tif'
p3173
sg26
S'45'
p3174
sg28
S'6613'
p3175
sg30
S'clim.hhe4570.bio18.tif'
p3176
sg32
g33
sg34
g35
sg36
S'Precipitation of Warmest Quarter HE RCP45 2070'
p3177
sg38
S'clim.hhe4570.bio18'
p3178
sg40
g41
sg42
S'hhe4570'
p3179
sg44
S'2070'
p3180
ssS'bio03'
p3181
(dp3182
g8
S'clim'
p3183
sg10
I4326
sg11
S'yes'
p3184
sg13
S'hhe4570.bio03'
p3185
sg15
I148
sg16
S'bio03'
p3186
sg18
S'Isothermality (BIO2/BIO7) (* 100)'
p3187
sg20
S'climate'
p3188
sg22
S'2015-03-24 21:05:32'
p3189
sg24
S'../views/GTiff/clim.hhe4570.bio03.tif'
p3190
sg26
S'45'
p3191
sg28
S'6609'
p3192
sg30
S'clim.hhe4570.bio03.tif'
p3193
sg32
g33
sg34
g35
sg36
S'Isothermality (BIO2/BIO7) (* 100) HE RCP45 2070'
p3194
sg38
S'clim.hhe4570.bio03'
p3195
sg40
g41
sg42
S'hhe4570'
p3196
sg44
S'2070'
p3197
ssS'bio04'
p3198
(dp3199
g8
S'clim'
p3200
sg10
I4326
sg11
S'yes'
p3201
sg13
S'hhe4570.bio04'
p3202
sg15
I209
sg16
S'bio04'
p3203
sg18
S'Temperature Seasonality (standard deviation *100)'
p3204
sg20
S'climate'
p3205
sg22
S'2015-03-24 21:05:32'
p3206
sg24
S'../views/GTiff/clim.hhe4570.bio04.tif'
p3207
sg26
S'45'
p3208
sg28
S'6608'
p3209
sg30
S'clim.hhe4570.bio04.tif'
p3210
sg32
g33
sg34
g35
sg36
S'Temperature Seasonality (standard deviation *100) HE RCP45 2070'
p3211
sg38
S'clim.hhe4570.bio04'
p3212
sg40
g41
sg42
S'hhe4570'
p3213
sg44
S'2070'
p3214
ssS'bio08'
p3215
(dp3216
g8
S'clim'
p3217
sg10
I4326
sg11
S'no'
p3218
sg13
S'hhe4570.bio08'
p3219
sg15
I53
sg16
S'bio08'
p3220
sg18
S'Mean Temperature of Wettest Quarter'
p3221
sg20
S'climate'
p3222
sg22
S'2015-03-24 21:05:32'
p3223
sg24
S'../views/GTiff/clim.hhe4570.bio08.tif'
p3224
sg26
S'45'
p3225
sg28
S'6616'
p3226
sg30
S'clim.hhe4570.bio08.tif'
p3227
sg32
g33
sg34
g35
sg36
S'Mean Temperature of Wettest Quarter HE RCP45 2070'
p3228
sg38
S'clim.hhe4570.bio08'
p3229
sg40
g41
sg42
S'hhe4570'
p3230
sg44
S'2070'
p3231
ssS'bio09'
p3232
(dp3233
g8
S'clim'
p3234
sg10
I4326
sg11
S'yes'
p3235
sg13
S'hhe4570.bio09'
p3236
sg15
I298
sg16
S'bio09'
p3237
sg18
S'Mean Temperature of Driest Quarter'
p3238
sg20
S'climate'
p3239
sg22
S'2015-03-24 21:05:32'
p3240
sg24
S'../views/GTiff/clim.hhe4570.bio09.tif'
p3241
sg26
S'45'
p3242
sg28
S'6615'
p3243
sg30
S'clim.hhe4570.bio09.tif'
p3244
sg32
g33
sg34
g35
sg36
S'Mean Temperature of Driest Quarter HE RCP45 2070'
p3245
sg38
S'clim.hhe4570.bio09'
p3246
sg40
g41
sg42
S'hhe4570'
p3247
sg44
S'2070'
p3248
ssS'bio02'
p3249
(dp3250
g8
S'clim'
p3251
sg10
I4326
sg11
S'yes'
p3252
sg13
S'hhe4570.bio02'
p3253
sg15
I335
sg16
S'bio02'
p3254
sg18
S'Mean Diurnal Range (Mean of monthly (max temp - min temp))'
p3255
sg20
S'climate'
p3256
sg22
S'2015-03-24 21:05:32'
p3257
sg24
S'../views/GTiff/clim.hhe4570.bio02.tif'
p3258
sg26
S'45'
p3259
sg28
S'6610'
p3260
sg30
S'clim.hhe4570.bio02.tif'
p3261
sg32
g33
sg34
g35
sg36
S'Mean Diurnal Range (Mean of monthly (max temp - min temp)) HE RCP45 2070'
p3262
sg38
S'clim.hhe4570.bio02'
p3263
sg40
g41
sg42
S'hhe4570'
p3264
sg44
S'2070'
p3265
sssS'gd4550'
p3266
(dp3267
S'bio10'
p3268
(dp3269
g8
S'clim'
p3270
sg10
I4326
sg11
S'yes'
p3271
sg13
S'gd4550.bio10'
p3272
sg15
I126
sg16
S'bio10'
p3273
sg18
S'Mean Temperature of Warmest Quarter'
p3274
sg20
S'climate'
p3275
sg22
S'2015-03-24 21:05:32'
p3276
sg24
S'../views/GTiff/clim.gd4550.bio10.tif'
p3277
sg26
S'45'
p3278
sg28
S'6188'
p3279
sg30
S'clim.gd4550.bio10.tif'
p3280
sg32
g33
sg34
g35
sg36
S'Mean Temperature of Warmest Quarter GD RCP45 2050'
p3281
sg38
S'clim.gd4550.bio10'
p3282
sg40
g41
sg42
S'gd4550'
p3283
sg44
S'2050'
p3284
ssS'bio19'
p3285
(dp3286
g8
S'clim'
p3287
sg10
I4326
sg11
S'yes'
p3288
sg13
S'gd4550.bio19'
p3289
sg15
I128
sg16
S'bio19'
p3290
sg18
S'Precipitation of Coldest Quarter'
p3291
sg20
S'climate'
p3292
sg22
S'2015-03-24 21:05:32'
p3293
sg24
S'../views/GTiff/clim.gd4550.bio19.tif'
p3294
sg26
S'45'
p3295
sg28
S'6189'
p3296
sg30
S'clim.gd4550.bio19.tif'
p3297
sg32
g33
sg34
g35
sg36
S'Precipitation of Coldest Quarter GD RCP45 2050'
p3298
sg38
S'clim.gd4550.bio19'
p3299
sg40
g41
sg42
S'gd4550'
p3300
sg44
S'2050'
p3301
ssS'bio16'
p3302
(dp3303
g8
S'clim'
p3304
sg10
I4326
sg11
S'yes'
p3305
sg13
S'gd4550.bio16'
p3306
sg15
I46
sg16
S'bio16'
p3307
sg18
S'Precipitation of Wettest Quarter'
p3308
sg20
S'climate'
p3309
sg22
S'2015-03-24 21:05:32'
p3310
sg24
S'../views/GTiff/clim.gd4550.bio16.tif'
p3311
sg26
S'45'
p3312
sg28
S'6192'
p3313
sg30
S'clim.gd4550.bio16.tif'
p3314
sg32
g33
sg34
g35
sg36
S'Precipitation of Wettest Quarter GD RCP45 2050'
p3315
sg38
S'clim.gd4550.bio16'
p3316
sg40
g41
sg42
S'gd4550'
p3317
sg44
S'2050'
p3318
ssS'bio06'
p3319
(dp3320
g8
S'clim'
p3321
sg10
I4326
sg11
S'yes'
p3322
sg13
S'gd4550.bio06'
p3323
sg15
I39
sg16
S'bio06'
p3324
sg18
S'Min Temperature of Coldest Month'
p3325
sg20
S'climate'
p3326
sg22
S'2015-03-24 21:05:32'
p3327
sg24
S'../views/GTiff/clim.gd4550.bio06.tif'
p3328
sg26
S'45'
p3329
sg28
S'6196'
p3330
sg30
S'clim.gd4550.bio06.tif'
p3331
sg32
g33
sg34
g35
sg36
S'Min Temperature of Coldest Month GD RCP45 2050'
p3332
sg38
S'clim.gd4550.bio06'
p3333
sg40
g41
sg42
S'gd4550'
p3334
sg44
S'2050'
p3335
ssS'bio09'
p3336
(dp3337
g8
S'clim'
p3338
sg10
I4326
sg11
S'yes'
p3339
sg13
S'gd4550.bio09'
p3340
sg15
I123
sg16
S'bio09'
p3341
sg18
S'Mean Temperature of Driest Quarter'
p3342
sg20
S'climate'
p3343
sg22
S'2015-03-24 21:05:32'
p3344
sg24
S'../views/GTiff/clim.gd4550.bio09.tif'
p3345
sg26
S'45'
p3346
sg28
S'6205'
p3347
sg30
S'clim.gd4550.bio09.tif'
p3348
sg32
g33
sg34
g35
sg36
S'Mean Temperature of Driest Quarter GD RCP45 2050'
p3349
sg38
S'clim.gd4550.bio09'
p3350
sg40
g41
sg42
S'gd4550'
p3351
sg44
S'2050'
p3352
ssS'bio05'
p3353
(dp3354
g8
S'clim'
p3355
sg10
I4326
sg11
S'yes'
p3356
sg13
S'gd4550.bio05'
p3357
sg15
I115
sg16
S'bio05'
p3358
sg18
S'Max Temperature of Warmest Month'
p3359
sg20
S'climate'
p3360
sg22
S'2015-03-24 21:05:32'
p3361
sg24
S'../views/GTiff/clim.gd4550.bio05.tif'
p3362
sg26
S'45'
p3363
sg28
S'6197'
p3364
sg30
S'clim.gd4550.bio05.tif'
p3365
sg32
g33
sg34
g35
sg36
S'Max Temperature of Warmest Month GD RCP45 2050'
p3366
sg38
S'clim.gd4550.bio05'
p3367
sg40
g41
sg42
S'gd4550'
p3368
sg44
S'2050'
p3369
ssS'bio07'
p3370
(dp3371
g8
S'clim'
p3372
sg10
I4326
sg11
S'yes'
p3373
sg13
S'gd4550.bio07'
p3374
sg15
I318
sg16
S'bio07'
p3375
sg18
S'Temperature Annual Range (BIO5-BIO6)'
p3376
sg20
S'climate'
p3377
sg22
S'2015-03-24 21:05:32'
p3378
sg24
S'../views/GTiff/clim.gd4550.bio07.tif'
p3379
sg26
S'45'
p3380
sg28
S'6195'
p3381
sg30
S'clim.gd4550.bio07.tif'
p3382
sg32
g33
sg34
g35
sg36
S'Temperature Annual Range (BIO5-BIO6) GD RCP45 2050'
p3383
sg38
S'clim.gd4550.bio07'
p3384
sg40
g41
sg42
S'gd4550'
p3385
sg44
S'2050'
p3386
ssS'bio11'
p3387
(dp3388
g8
S'clim'
p3389
sg10
I4326
sg11
S'yes'
p3390
sg13
S'gd4550.bio11'
p3391
sg15
I121
sg16
S'bio11'
p3392
sg18
S'Mean Temperature of Coldest Quarter'
p3393
sg20
S'climate'
p3394
sg22
S'2015-03-24 21:05:32'
p3395
sg24
S'../views/GTiff/clim.gd4550.bio11.tif'
p3396
sg26
S'45'
p3397
sg28
S'6191'
p3398
sg30
S'clim.gd4550.bio11.tif'
p3399
sg32
g33
sg34
g35
sg36
S'Mean Temperature of Coldest Quarter GD RCP45 2050'
p3400
sg38
S'clim.gd4550.bio11'
p3401
sg40
g41
sg42
S'gd4550'
p3402
sg44
S'2050'
p3403
ssS'bio12'
p3404
(dp3405
g8
S'clim'
p3406
sg10
I4326
sg11
S'yes'
p3407
sg13
S'gd4550.bio12'
p3408
sg15
I336
sg16
S'bio12'
p3409
sg18
S'Annual Precipitation'
p3410
sg20
S'climate'
p3411
sg22
S'2015-03-24 21:05:32'
p3412
sg24
S'../views/GTiff/clim.gd4550.bio12.tif'
p3413
sg26
S'45'
p3414
sg28
S'6194'
p3415
sg30
S'clim.gd4550.bio12.tif'
p3416
sg32
g33
sg34
g35
sg36
S'Annual Precipitation GD RCP45 2050'
p3417
sg38
S'clim.gd4550.bio12'
p3418
sg40
g41
sg42
S'gd4550'
p3419
sg44
S'2050'
p3420
ssS'bio13'
p3421
(dp3422
g8
S'clim'
p3423
sg10
I4326
sg11
S'yes'
p3424
sg13
S'gd4550.bio13'
p3425
sg15
I145
sg16
S'bio13'
p3426
sg18
S'Precipitation of Wettest Month'
p3427
sg20
S'climate'
p3428
sg22
S'2015-03-24 21:05:32'
p3429
sg24
S'../views/GTiff/clim.gd4550.bio13.tif'
p3430
sg26
S'45'
p3431
sg28
S'6190'
p3432
sg30
S'clim.gd4550.bio13.tif'
p3433
sg32
g33
sg34
g35
sg36
S'Precipitation of Wettest Month GD RCP45 2050'
p3434
sg38
S'clim.gd4550.bio13'
p3435
sg40
g41
sg42
S'gd4550'
p3436
sg44
S'2050'
p3437
ssS'bio14'
p3438
(dp3439
g8
S'clim'
p3440
sg10
I4326
sg11
S'yes'
p3441
sg13
S'gd4550.bio14'
p3442
sg15
I214
sg16
S'bio14'
p3443
sg18
S'Precipitation of Driest Month'
p3444
sg20
S'climate'
p3445
sg22
S'2015-03-24 21:05:32'
p3446
sg24
S'../views/GTiff/clim.gd4550.bio14.tif'
p3447
sg26
S'45'
p3448
sg28
S'6204'
p3449
sg30
S'clim.gd4550.bio14.tif'
p3450
sg32
g33
sg34
g35
sg36
S'Precipitation of Driest Month GD RCP45 2050'
p3451
sg38
S'clim.gd4550.bio14'
p3452
sg40
g41
sg42
S'gd4550'
p3453
sg44
S'2050'
p3454
ssS'bio15'
p3455
(dp3456
g8
S'clim'
p3457
sg10
I4326
sg11
S'yes'
p3458
sg13
S'gd4550.bio15'
p3459
sg15
I277
sg16
S'bio15'
p3460
sg18
S'Precipitation Seasonality (Coefficient of Variation)'
p3461
sg20
S'climate'
p3462
sg22
S'2015-03-24 21:05:32'
p3463
sg24
S'../views/GTiff/clim.gd4550.bio15.tif'
p3464
sg26
S'45'
p3465
sg28
S'6193'
p3466
sg30
S'clim.gd4550.bio15.tif'
p3467
sg32
g33
sg34
g35
sg36
S'Precipitation Seasonality (Coefficient of Variation) GD RCP45 2050'
p3468
sg38
S'clim.gd4550.bio15'
p3469
sg40
g41
sg42
S'gd4550'
p3470
sg44
S'2050'
p3471
ssS'bio01'
p3472
(dp3473
g8
S'clim'
p3474
sg10
I4326
sg11
S'yes'
p3475
sg13
S'gd4550.bio01'
p3476
sg15
I190
sg16
S'bio01'
p3477
sg18
S'Annual Mean Temperature'
p3478
sg20
S'climate'
p3479
sg22
S'2015-03-24 21:05:32'
p3480
sg24
S'../views/GTiff/clim.gd4550.bio01.tif'
p3481
sg26
S'45'
p3482
sg28
S'6201'
p3483
sg30
S'clim.gd4550.bio01.tif'
p3484
sg32
g33
sg34
g35
sg36
S'Annual Mean Temperature GD RCP45 2050'
p3485
sg38
S'clim.gd4550.bio01'
p3486
sg40
g41
sg42
S'gd4550'
p3487
sg44
S'2050'
p3488
ssS'bio17'
p3489
(dp3490
g8
S'clim'
p3491
sg10
I4326
sg11
S'yes'
p3492
sg13
S'gd4550.bio17'
p3493
sg15
I37
sg16
S'bio17'
p3494
sg18
S'Precipitation of Driest Quarter'
p3495
sg20
S'climate'
p3496
sg22
S'2015-03-24 21:05:32'
p3497
sg24
S'../views/GTiff/clim.gd4550.bio17.tif'
p3498
sg26
S'45'
p3499
sg28
S'6202'
p3500
sg30
S'clim.gd4550.bio17.tif'
p3501
sg32
g33
sg34
g35
sg36
S'Precipitation of Driest Quarter GD RCP45 2050'
p3502
sg38
S'clim.gd4550.bio17'
p3503
sg40
g41
sg42
g3266
sg44
S'2050'
p3504
ssS'bio18'
p3505
(dp3506
g8
S'clim'
p3507
sg10
I4326
sg11
S'yes'
p3508
sg13
S'gd4550.bio18'
p3509
sg15
I194
sg16
S'bio18'
p3510
sg18
S'Precipitation of Warmest Quarter'
p3511
sg20
S'climate'
p3512
sg22
S'2015-03-24 21:05:32'
p3513
sg24
S'../views/GTiff/clim.gd4550.bio18.tif'
p3514
sg26
S'45'
p3515
sg28
S'6203'
p3516
sg30
S'clim.gd4550.bio18.tif'
p3517
sg32
g33
sg34
g35
sg36
S'Precipitation of Warmest Quarter GD RCP45 2050'
p3518
sg38
S'clim.gd4550.bio18'
p3519
sg40
g41
sg42
S'gd4550'
p3520
sg44
S'2050'
p3521
ssS'bio03'
p3522
(dp3523
g8
S'clim'
p3524
sg10
I4326
sg11
S'yes'
p3525
sg13
S'gd4550.bio03'
p3526
sg15
I202
sg16
S'bio03'
p3527
sg18
S'Isothermality (BIO2/BIO7) (* 100)'
p3528
sg20
S'climate'
p3529
sg22
S'2015-03-24 21:05:32'
p3530
sg24
S'../views/GTiff/clim.gd4550.bio03.tif'
p3531
sg26
S'45'
p3532
sg28
S'6199'
p3533
sg30
S'clim.gd4550.bio03.tif'
p3534
sg32
g33
sg34
g35
sg36
S'Isothermality (BIO2/BIO7) (* 100) GD RCP45 2050'
p3535
sg38
S'clim.gd4550.bio03'
p3536
sg40
g41
sg42
S'gd4550'
p3537
sg44
S'2050'
p3538
ssS'bio08'
p3539
(dp3540
g8
S'clim'
p3541
sg10
I4326
sg11
S'yes'
p3542
sg13
S'gd4550.bio08'
p3543
sg15
I151
sg16
S'bio08'
p3544
sg18
S'Mean Temperature of Wettest Quarter'
p3545
sg20
S'climate'
p3546
sg22
S'2015-03-24 21:05:32'
p3547
sg24
S'../views/GTiff/clim.gd4550.bio08.tif'
p3548
sg26
S'45'
p3549
sg28
S'6206'
p3550
sg30
S'clim.gd4550.bio08.tif'
p3551
sg32
g33
sg34
g35
sg36
S'Mean Temperature of Wettest Quarter GD RCP45 2050'
p3552
sg38
S'clim.gd4550.bio08'
p3553
sg40
g41
sg42
S'gd4550'
p3554
sg44
S'2050'
p3555
ssS'bio04'
p3556
(dp3557
g8
S'clim'
p3558
sg10
I4326
sg11
S'yes'
p3559
sg13
S'gd4550.bio04'
p3560
sg15
I170
sg16
S'bio04'
p3561
sg18
S'Temperature Seasonality (standard deviation *100)'
p3562
sg20
S'climate'
p3563
sg22
S'2015-03-24 21:05:32'
p3564
sg24
S'../views/GTiff/clim.gd4550.bio04.tif'
p3565
sg26
S'45'
p3566
sg28
S'6198'
p3567
sg30
S'clim.gd4550.bio04.tif'
p3568
sg32
g33
sg34
g35
sg36
S'Temperature Seasonality (standard deviation *100) GD RCP45 2050'
p3569
sg38
S'clim.gd4550.bio04'
p3570
sg40
g41
sg42
S'gd4550'
p3571
sg44
S'2050'
p3572
ssS'bio02'
p3573
(dp3574
g8
S'clim'
p3575
sg10
I4326
sg11
S'yes'
p3576
sg13
S'gd4550.bio02'
p3577
sg15
I212
sg16
S'bio02'
p3578
sg18
S'Mean Diurnal Range (Mean of monthly (max temp - min temp))'
p3579
sg20
S'climate'
p3580
sg22
S'2015-03-24 21:05:32'
p3581
sg24
S'../views/GTiff/clim.gd4550.bio02.tif'
p3582
sg26
S'45'
p3583
sg28
S'6200'
p3584
sg30
S'clim.gd4550.bio02.tif'
p3585
sg32
g33
sg34
g35
sg36
S'Mean Diurnal Range (Mean of monthly (max temp - min temp)) GD RCP45 2050'
p3586
sg38
S'clim.gd4550.bio02'
p3587
sg40
g41
sg42
S'gd4550'
p3588
sg44
S'2050'
p3589
sssS'hhe4550'
p3590
(dp3591
S'bio07'
p3592
(dp3593
g8
S'clim'
p3594
sg10
I4326
sg11
S'no'
p3595
sg13
S'hhe4550.bio07'
p3596
sg15
I198
sg16
S'bio07'
p3597
sg18
S'Temperature Annual Range (BIO5-BIO6)'
p3598
sg20
S'climate'
p3599
sg22
S'2015-03-24 21:05:32'
p3600
sg24
S'../views/GTiff/clim.hhe4550.bio07.tif'
p3601
sg26
S'45'
p3602
sg28
S'6567'
p3603
sg30
S'clim.hhe4550.bio07.tif'
p3604
sg32
g33
sg34
g35
sg36
S'Temperature Annual Range (BIO5-BIO6) HE RCP45 2050'
p3605
sg38
S'clim.hhe4550.bio07'
p3606
sg40
g41
sg42
S'hhe4550'
p3607
sg44
S'2050'
p3608
ssS'bio19'
p3609
(dp3610
g8
S'clim'
p3611
sg10
I4326
sg11
S'yes'
p3612
sg13
S'hhe4550.bio19'
p3613
sg15
I192
sg16
S'bio19'
p3614
sg18
S'Precipitation of Coldest Quarter'
p3615
sg20
S'climate'
p3616
sg22
S'2015-03-24 21:05:32'
p3617
sg24
S'../views/GTiff/clim.hhe4550.bio19.tif'
p3618
sg26
S'45'
p3619
sg28
S'6561'
p3620
sg30
S'clim.hhe4550.bio19.tif'
p3621
sg32
g33
sg34
g35
sg36
S'Precipitation of Coldest Quarter HE RCP45 2050'
p3622
sg38
S'clim.hhe4550.bio19'
p3623
sg40
g41
sg42
S'hhe4550'
p3624
sg44
S'2050'
p3625
ssS'bio16'
p3626
(dp3627
g8
S'clim'
p3628
sg10
I4326
sg11
S'yes'
p3629
sg13
S'hhe4550.bio16'
p3630
sg15
I283
sg16
S'bio16'
p3631
sg18
S'Precipitation of Wettest Quarter'
p3632
sg20
S'climate'
p3633
sg22
S'2015-03-24 21:05:32'
p3634
sg24
S'../views/GTiff/clim.hhe4550.bio16.tif'
p3635
sg26
S'45'
p3636
sg28
S'6564'
p3637
sg30
S'clim.hhe4550.bio16.tif'
p3638
sg32
g33
sg34
g35
sg36
S'Precipitation of Wettest Quarter HE RCP45 2050'
p3639
sg38
S'clim.hhe4550.bio16'
p3640
sg40
g41
sg42
S'hhe4550'
p3641
sg44
S'2050'
p3642
ssS'bio06'
p3643
(dp3644
g8
S'clim'
p3645
sg10
I4326
sg11
S'yes'
p3646
sg13
S'hhe4550.bio06'
p3647
sg15
I135
sg16
S'bio06'
p3648
sg18
S'Min Temperature of Coldest Month'
p3649
sg20
S'climate'
p3650
sg22
S'2015-03-24 21:05:32'
p3651
sg24
S'../views/GTiff/clim.hhe4550.bio06.tif'
p3652
sg26
S'45'
p3653
sg28
S'6568'
p3654
sg30
S'clim.hhe4550.bio06.tif'
p3655
sg32
g33
sg34
g35
sg36
S'Min Temperature of Coldest Month HE RCP45 2050'
p3656
sg38
S'clim.hhe4550.bio06'
p3657
sg40
g41
sg42
S'hhe4550'
p3658
sg44
S'2050'
p3659
ssS'bio09'
p3660
(dp3661
g8
S'clim'
p3662
sg10
I4326
sg11
S'yes'
p3663
sg13
S'hhe4550.bio09'
p3664
sg15
I253
sg16
S'bio09'
p3665
sg18
S'Mean Temperature of Driest Quarter'
p3666
sg20
S'climate'
p3667
sg22
S'2015-03-24 21:05:32'
p3668
sg24
S'../views/GTiff/clim.hhe4550.bio09.tif'
p3669
sg26
S'45'
p3670
sg28
S'6577'
p3671
sg30
S'clim.hhe4550.bio09.tif'
p3672
sg32
g33
sg34
g35
sg36
S'Mean Temperature of Driest Quarter HE RCP45 2050'
p3673
sg38
S'clim.hhe4550.bio09'
p3674
sg40
g41
sg42
S'hhe4550'
p3675
sg44
S'2050'
p3676
ssS'bio12'
p3677
(dp3678
g8
S'clim'
p3679
sg10
I4326
sg11
S'no'
p3680
sg13
S'hhe4550.bio12'
p3681
sg15
I94
sg16
S'bio12'
p3682
sg18
S'Annual Precipitation'
p3683
sg20
S'climate'
p3684
sg22
S'2015-03-24 21:05:32'
p3685
sg24
S'../views/GTiff/clim.hhe4550.bio12.tif'
p3686
sg26
S'45'
p3687
sg28
S'6566'
p3688
sg30
S'clim.hhe4550.bio12.tif'
p3689
sg32
g33
sg34
g35
sg36
S'Annual Precipitation HE RCP45 2050'
p3690
sg38
S'clim.hhe4550.bio12'
p3691
sg40
g41
sg42
S'hhe4550'
p3692
sg44
S'2050'
p3693
ssS'bio10'
p3694
(dp3695
g8
S'clim'
p3696
sg10
I4326
sg11
S'yes'
p3697
sg13
S'hhe4550.bio10'
p3698
sg15
I303
sg16
S'bio10'
p3699
sg18
S'Mean Temperature of Warmest Quarter'
p3700
sg20
S'climate'
p3701
sg22
S'2015-03-24 21:05:32'
p3702
sg24
S'../views/GTiff/clim.hhe4550.bio10.tif'
p3703
sg26
S'45'
p3704
sg28
S'6560'
p3705
sg30
S'clim.hhe4550.bio10.tif'
p3706
sg32
g33
sg34
g35
sg36
S'Mean Temperature of Warmest Quarter HE RCP45 2050'
p3707
sg38
S'clim.hhe4550.bio10'
p3708
sg40
g41
sg42
S'hhe4550'
p3709
sg44
S'2050'
p3710
ssS'bio11'
p3711
(dp3712
g8
S'clim'
p3713
sg10
I4326
sg11
S'yes'
p3714
sg13
S'hhe4550.bio11'
p3715
sg15
I262
sg16
S'bio11'
p3716
sg18
S'Mean Temperature of Coldest Quarter'
p3717
sg20
S'climate'
p3718
sg22
S'2015-03-24 21:05:32'
p3719
sg24
S'../views/GTiff/clim.hhe4550.bio11.tif'
p3720
sg26
S'45'
p3721
sg28
S'6563'
p3722
sg30
S'clim.hhe4550.bio11.tif'
p3723
sg32
g33
sg34
g35
sg36
S'Mean Temperature of Coldest Quarter HE RCP45 2050'
p3724
sg38
S'clim.hhe4550.bio11'
p3725
sg40
g41
sg42
S'hhe4550'
p3726
sg44
S'2050'
p3727
ssS'bio05'
p3728
(dp3729
g8
S'clim'
p3730
sg10
I4326
sg11
S'yes'
p3731
sg13
S'hhe4550.bio05'
p3732
sg15
I204
sg16
S'bio05'
p3733
sg18
S'Max Temperature of Warmest Month'
p3734
sg20
S'climate'
p3735
sg22
S'2015-03-24 21:05:32'
p3736
sg24
S'../views/GTiff/clim.hhe4550.bio05.tif'
p3737
sg26
S'45'
p3738
sg28
S'6569'
p3739
sg30
S'clim.hhe4550.bio05.tif'
p3740
sg32
g33
sg34
g35
sg36
S'Max Temperature of Warmest Month HE RCP45 2050'
p3741
sg38
S'clim.hhe4550.bio05'
p3742
sg40
g41
sg42
S'hhe4550'
p3743
sg44
S'2050'
p3744
ssS'bio13'
p3745
(dp3746
g8
S'clim'
p3747
sg10
I4326
sg11
S'yes'
p3748
sg13
S'hhe4550.bio13'
p3749
sg15
I217
sg16
S'bio13'
p3750
sg18
S'Precipitation of Wettest Month'
p3751
sg20
S'climate'
p3752
sg22
S'2015-03-24 21:05:32'
p3753
sg24
S'../views/GTiff/clim.hhe4550.bio13.tif'
p3754
sg26
S'45'
p3755
sg28
S'6562'
p3756
sg30
S'clim.hhe4550.bio13.tif'
p3757
sg32
g33
sg34
g35
sg36
S'Precipitation of Wettest Month HE RCP45 2050'
p3758
sg38
S'clim.hhe4550.bio13'
p3759
sg40
g41
sg42
S'hhe4550'
p3760
sg44
S'2050'
p3761
ssS'bio14'
p3762
(dp3763
g8
S'clim'
p3764
sg10
I4326
sg11
S'yes'
p3765
sg13
S'hhe4550.bio14'
p3766
sg15
I327
sg16
S'bio14'
p3767
sg18
S'Precipitation of Driest Month'
p3768
sg20
S'climate'
p3769
sg22
S'2015-03-24 21:05:32'
p3770
sg24
S'../views/GTiff/clim.hhe4550.bio14.tif'
p3771
sg26
S'45'
p3772
sg28
S'6576'
p3773
sg30
S'clim.hhe4550.bio14.tif'
p3774
sg32
g33
sg34
g35
sg36
S'Precipitation of Driest Month HE RCP45 2050'
p3775
sg38
S'clim.hhe4550.bio14'
p3776
sg40
g41
sg42
S'hhe4550'
p3777
sg44
S'2050'
p3778
ssS'bio02'
p3779
(dp3780
g8
S'clim'
p3781
sg10
I4326
sg11
S'yes'
p3782
sg13
S'hhe4550.bio02'
p3783
sg15
I263
sg16
S'bio02'
p3784
sg18
S'Mean Diurnal Range (Mean of monthly (max temp - min temp))'
p3785
sg20
S'climate'
p3786
sg22
S'2015-03-24 21:05:32'
p3787
sg24
S'../views/GTiff/clim.hhe4550.bio02.tif'
p3788
sg26
S'45'
p3789
sg28
S'6572'
p3790
sg30
S'clim.hhe4550.bio02.tif'
p3791
sg32
g33
sg34
g35
sg36
S'Mean Diurnal Range (Mean of monthly (max temp - min temp)) HE RCP45 2050'
p3792
sg38
S'clim.hhe4550.bio02'
p3793
sg40
g41
sg42
S'hhe4550'
p3794
sg44
S'2050'
p3795
ssS'bio01'
p3796
(dp3797
g8
S'clim'
p3798
sg10
I4326
sg11
S'no'
p3799
sg13
S'hhe4550.bio01'
p3800
sg15
I315
sg16
S'bio01'
p3801
sg18
S'Annual Mean Temperature'
p3802
sg20
S'climate'
p3803
sg22
S'2015-03-24 21:05:32'
p3804
sg24
S'../views/GTiff/clim.hhe4550.bio01.tif'
p3805
sg26
S'45'
p3806
sg28
S'6573'
p3807
sg30
S'clim.hhe4550.bio01.tif'
p3808
sg32
g33
sg34
g35
sg36
S'Annual Mean Temperature HE RCP45 2050'
p3809
sg38
S'clim.hhe4550.bio01'
p3810
sg40
g41
sg42
S'hhe4550'
p3811
sg44
S'2050'
p3812
ssS'bio17'
p3813
(dp3814
g8
S'clim'
p3815
sg10
I4326
sg11
S'yes'
p3816
sg13
S'hhe4550.bio17'
p3817
sg15
I291
sg16
S'bio17'
p3818
sg18
S'Precipitation of Driest Quarter'
p3819
sg20
S'climate'
p3820
sg22
S'2015-03-24 21:05:32'
p3821
sg24
S'../views/GTiff/clim.hhe4550.bio17.tif'
p3822
sg26
S'45'
p3823
sg28
S'6574'
p3824
sg30
S'clim.hhe4550.bio17.tif'
p3825
sg32
g33
sg34
g35
sg36
S'Precipitation of Driest Quarter HE RCP45 2050'
p3826
sg38
S'clim.hhe4550.bio17'
p3827
sg40
g41
sg42
S'hhe4550'
p3828
sg44
S'2050'
p3829
ssS'bio18'
p3830
(dp3831
g8
S'clim'
p3832
sg10
I4326
sg11
S'no'
p3833
sg13
S'hhe4550.bio18'
p3834
sg15
I340
sg16
S'bio18'
p3835
sg18
S'Precipitation of Warmest Quarter'
p3836
sg20
S'climate'
p3837
sg22
S'2015-03-24 21:05:32'
p3838
sg24
S'../views/GTiff/clim.hhe4550.bio18.tif'
p3839
sg26
S'45'
p3840
sg28
S'6575'
p3841
sg30
S'clim.hhe4550.bio18.tif'
p3842
sg32
g33
sg34
g35
sg36
S'Precipitation of Warmest Quarter HE RCP45 2050'
p3843
sg38
S'clim.hhe4550.bio18'
p3844
sg40
g41
sg42
S'hhe4550'
p3845
sg44
S'2050'
p3846
ssS'bio03'
p3847
(dp3848
g8
S'clim'
p3849
sg10
I4326
sg11
S'yes'
p3850
sg13
S'hhe4550.bio03'
p3851
sg15
I289
sg16
S'bio03'
p3852
sg18
S'Isothermality (BIO2/BIO7) (* 100)'
p3853
sg20
S'climate'
p3854
sg22
S'2015-03-24 21:05:32'
p3855
sg24
S'../views/GTiff/clim.hhe4550.bio03.tif'
p3856
sg26
S'45'
p3857
sg28
S'6571'
p3858
sg30
S'clim.hhe4550.bio03.tif'
p3859
sg32
g33
sg34
g35
sg36
S'Isothermality (BIO2/BIO7) (* 100) HE RCP45 2050'
p3860
sg38
S'clim.hhe4550.bio03'
p3861
sg40
g41
sg42
S'hhe4550'
p3862
sg44
S'2050'
p3863
ssS'bio08'
p3864
(dp3865
g8
S'clim'
p3866
sg10
I4326
sg11
S'no'
p3867
sg13
S'hhe4550.bio08'
p3868
sg15
I102
sg16
S'bio08'
p3869
sg18
S'Mean Temperature of Wettest Quarter'
p3870
sg20
S'climate'
p3871
sg22
S'2015-03-24 21:05:32'
p3872
sg24
S'../views/GTiff/clim.hhe4550.bio08.tif'
p3873
sg26
S'45'
p3874
sg28
S'6578'
p3875
sg30
S'clim.hhe4550.bio08.tif'
p3876
sg32
g33
sg34
g35
sg36
S'Mean Temperature of Wettest Quarter HE RCP45 2050'
p3877
sg38
S'clim.hhe4550.bio08'
p3878
sg40
g41
sg42
S'hhe4550'
p3879
sg44
S'2050'
p3880
ssS'bio04'
p3881
(dp3882
g8
S'clim'
p3883
sg10
I4326
sg11
S'yes'
p3884
sg13
S'hhe4550.bio04'
p3885
sg15
I261
sg16
S'bio04'
p3886
sg18
S'Temperature Seasonality (standard deviation *100)'
p3887
sg20
S'climate'
p3888
sg22
S'2015-03-24 21:05:32'
p3889
sg24
S'../views/GTiff/clim.hhe4550.bio04.tif'
p3890
sg26
S'45'
p3891
sg28
S'6570'
p3892
sg30
S'clim.hhe4550.bio04.tif'
p3893
sg32
g33
sg34
g35
sg36
S'Temperature Seasonality (standard deviation *100) HE RCP45 2050'
p3894
sg38
S'clim.hhe4550.bio04'
p3895
sg40
g41
sg42
S'hhe4550'
p3896
sg44
S'2050'
p3897
ssS'bio15'
p3898
(dp3899
g8
S'clim'
p3900
sg10
I4326
sg11
S'no'
p3901
sg13
S'hhe4550.bio15'
p3902
sg15
I25
sg16
S'bio15'
p3903
sg18
S'Precipitation Seasonality (Coefficient of Variation)'
p3904
sg20
S'climate'
p3905
sg22
S'2015-03-24 21:05:32'
p3906
sg24
S'../views/GTiff/clim.hhe4550.bio15.tif'
p3907
sg26
S'45'
p3908
sg28
S'6565'
p3909
sg30
S'clim.hhe4550.bio15.tif'
p3910
sg32
g33
sg34
g35
sg36
S'Precipitation Seasonality (Coefficient of Variation) HE RCP45 2050'
p3911
sg38
S'clim.hhe4550.bio15'
p3912
sg40
g41
sg42
g3590
sg44
S'2050'
p3913
sssS'current'
p3914
(dp3915
S'bio10'
p3916
(dp3917
g8
S'clim'
p3918
sg10
I4326
sg11
S'yes'
p3919
sg13
S'current.bio10'
p3920
sg15
I238
sg16
S'bio10'
p3921
sg18
S'Mean Temperature of Warmest Quarter'
p3922
sg20
S'climate'
p3923
sg22
S'2015-03-24 21:05:32'
p3924
sg24
S'../views/GTiff/clim.current.bio10.tif'
p3925
sg26
S'current'
p3926
sg28
S'6264'
p3927
sg30
S'clim.current.bio10.tif'
p3928
sg32
g33
sg34
g35
sg36
S'Mean Temperature of Warmest Quarter Current Climate 1960-2000'
p3929
sg38
S'clim.current.bio10'
p3930
sg40
g41
sg42
S'current'
p3931
sg44
S'current'
p3932
ssS'bio16'
p3933
(dp3934
g8
S'clim'
p3935
sg10
I4326
sg11
S'yes'
p3936
sg13
S'current.bio16'
p3937
sg15
I180
sg16
S'bio16'
p3938
sg18
S'Precipitation of Wettest Quarter'
p3939
sg20
S'climate'
p3940
sg22
S'2015-03-24 21:05:32'
p3941
sg24
S'../views/GTiff/clim.current.bio16.tif'
p3942
sg26
S'current'
p3943
sg28
S'6268'
p3944
sg30
S'clim.current.bio16.tif'
p3945
sg32
g33
sg34
g35
sg36
S'Precipitation of Wettest Quarter Current Climate 1960-2000'
p3946
sg38
S'clim.current.bio16'
p3947
sg40
g41
sg42
S'current'
p3948
sg44
S'current'
p3949
ssS'bio06'
p3950
(dp3951
g8
S'clim'
p3952
sg10
I4326
sg11
S'yes'
p3953
sg13
S'current.bio06'
p3954
sg15
I15
sg16
S'bio06'
p3955
sg18
S'Min Temperature of Coldest Month'
p3956
sg20
S'climate'
p3957
sg22
S'2015-03-24 21:05:32'
p3958
sg24
S'../views/GTiff/clim.current.bio06.tif'
p3959
sg26
S'current'
p3960
sg28
S'6272'
p3961
sg30
S'clim.current.bio06.tif'
p3962
sg32
g33
sg34
g35
sg36
S'Min Temperature of Coldest Month Current Climate 1960-2000'
p3963
sg38
S'clim.current.bio06'
p3964
sg40
g41
sg42
g3914
sg44
S'current'
p3965
ssS'bio09'
p3966
(dp3967
g8
S'clim'
p3968
sg10
I4326
sg11
S'yes'
p3969
sg13
S'current.bio09'
p3970
sg15
I182
sg16
S'bio09'
p3971
sg18
S'Mean Temperature of Driest Quarter'
p3972
sg20
S'climate'
p3973
sg22
S'2015-03-24 21:05:32'
p3974
sg24
S'../views/GTiff/clim.current.bio09.tif'
p3975
sg26
S'current'
p3976
sg28
S'6281'
p3977
sg30
S'clim.current.bio09.tif'
p3978
sg32
g33
sg34
g35
sg36
S'Mean Temperature of Driest Quarter Current Climate 1960-2000'
p3979
sg38
S'clim.current.bio09'
p3980
sg40
g41
sg42
S'current'
p3981
sg44
S'current'
p3982
ssS'bio05'
p3983
(dp3984
g8
S'clim'
p3985
sg10
I4326
sg11
S'yes'
p3986
sg13
S'current.bio05'
p3987
sg15
I131
sg16
S'bio05'
p3988
sg18
S'Max Temperature of Warmest Month'
p3989
sg20
S'climate'
p3990
sg22
S'2015-03-24 21:05:32'
p3991
sg24
S'../views/GTiff/clim.current.bio05.tif'
p3992
sg26
S'current'
p3993
sg28
S'6273'
p3994
sg30
S'clim.current.bio05.tif'
p3995
sg32
g33
sg34
g35
sg36
S'Max Temperature of Warmest Month Current Climate 1960-2000'
p3996
sg38
S'clim.current.bio05'
p3997
sg40
g41
sg42
S'current'
p3998
sg44
S'current'
p3999
ssS'bio14'
p4000
(dp4001
g8
S'clim'
p4002
sg10
I4326
sg11
S'yes'
p4003
sg13
S'current.bio14'
p4004
sg15
I230
sg16
S'bio14'
p4005
sg18
S'Precipitation of Driest Month'
p4006
sg20
S'climate'
p4007
sg22
S'2015-03-24 21:05:32'
p4008
sg24
S'../views/GTiff/clim.current.bio14.tif'
p4009
sg26
S'current'
p4010
sg28
S'6280'
p4011
sg30
S'clim.current.bio14.tif'
p4012
sg32
g33
sg34
g35
sg36
S'Precipitation of Driest Month Current Climate 1960-2000'
p4013
sg38
S'clim.current.bio14'
p4014
sg40
g41
sg42
S'current'
p4015
sg44
S'current'
p4016
ssS'bio07'
p4017
(dp4018
g8
S'clim'
p4019
sg10
I4326
sg11
S'no'
p4020
sg13
S'current.bio07'
p4021
sg15
I264
sg16
S'bio07'
p4022
sg18
S'Temperature Annual Range (BIO5-BIO6)'
p4023
sg20
S'climate'
p4024
sg22
S'2015-03-24 21:05:32'
p4025
sg24
S'../views/GTiff/clim.current.bio07.tif'
p4026
sg26
S'current'
p4027
sg28
S'6271'
p4028
sg30
S'clim.current.bio07.tif'
p4029
sg32
g33
sg34
g35
sg36
S'Temperature Annual Range (BIO5-BIO6) Current Climate 1960-2000'
p4030
sg38
S'clim.current.bio07'
p4031
sg40
g41
sg42
S'current'
p4032
sg44
S'current'
p4033
ssS'bio11'
p4034
(dp4035
g8
S'clim'
p4036
sg10
I4326
sg11
S'yes'
p4037
sg13
S'current.bio11'
p4038
sg15
I133
sg16
S'bio11'
p4039
sg18
S'Mean Temperature of Coldest Quarter'
p4040
sg20
S'climate'
p4041
sg22
S'2015-03-24 21:05:32'
p4042
sg24
S'../views/GTiff/clim.current.bio11.tif'
p4043
sg26
S'current'
p4044
sg28
S'6267'
p4045
sg30
S'clim.current.bio11.tif'
p4046
sg32
g33
sg34
g35
sg36
S'Mean Temperature of Coldest Quarter Current Climate 1960-2000'
p4047
sg38
S'clim.current.bio11'
p4048
sg40
g41
sg42
S'current'
p4049
sg44
S'current'
p4050
ssS'bio12'
p4051
(dp4052
g8
S'clim'
p4053
sg10
I4326
sg11
S'no'
p4054
sg13
S'current.bio12'
p4055
sg15
I324
sg16
S'bio12'
p4056
sg18
S'Annual Precipitation'
p4057
sg20
S'climate'
p4058
sg22
S'2015-03-24 21:05:32'
p4059
sg24
S'../views/GTiff/clim.current.bio12.tif'
p4060
sg26
S'current'
p4061
sg28
S'6270'
p4062
sg30
S'clim.current.bio12.tif'
p4063
sg32
g33
sg34
g35
sg36
S'Annual Precipitation Current Climate 1960-2000'
p4064
sg38
S'clim.current.bio12'
p4065
sg40
g41
sg42
S'current'
p4066
sg44
S'current'
p4067
ssS'bio13'
p4068
(dp4069
g8
S'clim'
p4070
sg10
I4326
sg11
S'yes'
p4071
sg13
S'current.bio13'
p4072
sg15
I252
sg16
S'bio13'
p4073
sg18
S'Precipitation of Wettest Month'
p4074
sg20
S'climate'
p4075
sg22
S'2015-03-24 21:05:32'
p4076
sg24
S'../views/GTiff/clim.current.bio13.tif'
p4077
sg26
S'current'
p4078
sg28
S'6266'
p4079
sg30
S'clim.current.bio13.tif'
p4080
sg32
g33
sg34
g35
sg36
S'Precipitation of Wettest Month Current Climate 1960-2000'
p4081
sg38
S'clim.current.bio13'
p4082
sg40
g41
sg42
S'current'
p4083
sg44
S'current'
p4084
ssS'bio03'
p4085
(dp4086
g8
S'clim'
p4087
sg10
I4326
sg11
S'yes'
p4088
sg13
S'current.bio03'
p4089
sg15
I56
sg16
S'bio03'
p4090
sg18
S'Isothermality (BIO2/BIO7) (* 100)'
p4091
sg20
S'climate'
p4092
sg22
S'2015-03-24 21:05:32'
p4093
sg24
S'../views/GTiff/clim.current.bio03.tif'
p4094
sg26
S'current'
p4095
sg28
S'6275'
p4096
sg30
S'clim.current.bio03.tif'
p4097
sg32
g33
sg34
g35
sg36
S'Isothermality (BIO2/BIO7) (* 100) Current Climate 1960-2000'
p4098
sg38
S'clim.current.bio03'
p4099
sg40
g41
sg42
S'current'
p4100
sg44
S'current'
p4101
ssS'bio15'
p4102
(dp4103
g8
S'clim'
p4104
sg10
I4326
sg11
S'no'
p4105
sg13
S'current.bio15'
p4106
sg15
I166
sg16
S'bio15'
p4107
sg18
S'Precipitation Seasonality (Coefficient of Variation)'
p4108
sg20
S'climate'
p4109
sg22
S'2015-03-24 21:05:32'
p4110
sg24
S'../views/GTiff/clim.current.bio15.tif'
p4111
sg26
S'current'
p4112
sg28
S'6269'
p4113
sg30
S'clim.current.bio15.tif'
p4114
sg32
g33
sg34
g35
sg36
S'Precipitation Seasonality (Coefficient of Variation) Current Climate 1960-2000'
p4115
sg38
S'clim.current.bio15'
p4116
sg40
g41
sg42
S'current'
p4117
sg44
S'current'
p4118
ssS'bio01'
p4119
(dp4120
g8
S'clim'
p4121
sg10
I4326
sg11
S'no'
p4122
sg13
S'current.bio01'
p4123
sg15
I203
sg16
S'bio01'
p4124
sg18
S'Annual Mean Temperature'
p4125
sg20
S'climate'
p4126
sg22
S'2015-03-24 21:05:32'
p4127
sg24
S'../views/GTiff/clim.current.bio01.tif'
p4128
sg26
S'current'
p4129
sg28
S'6277'
p4130
sg30
S'clim.current.bio01.tif'
p4131
sg32
g33
sg34
g35
sg36
S'Annual Mean Temperature Current Climate 1960-2000'
p4132
sg38
S'clim.current.bio01'
p4133
sg40
g41
sg42
S'current'
p4134
sg44
S'current'
p4135
ssS'bio17'
p4136
(dp4137
g8
S'clim'
p4138
sg10
I4326
sg11
S'yes'
p4139
sg13
S'current.bio17'
p4140
sg15
I328
sg16
S'bio17'
p4141
sg18
S'Precipitation of Driest Quarter'
p4142
sg20
S'climate'
p4143
sg22
S'2015-03-24 21:05:32'
p4144
sg24
S'../views/GTiff/clim.current.bio17.tif'
p4145
sg26
S'current'
p4146
sg28
S'6278'
p4147
sg30
S'clim.current.bio17.tif'
p4148
sg32
g33
sg34
g35
sg36
S'Precipitation of Driest Quarter Current Climate 1960-2000'
p4149
sg38
S'clim.current.bio17'
p4150
sg40
g41
sg42
S'current'
p4151
sg44
S'current'
p4152
ssS'bio18'
p4153
(dp4154
g8
S'clim'
p4155
sg10
I4326
sg11
S'no'
p4156
sg13
S'current.bio18'
p4157
sg15
I265
sg16
S'bio18'
p4158
sg18
S'Precipitation of Warmest Quarter'
p4159
sg20
S'climate'
p4160
sg22
S'2015-03-24 21:05:32'
p4161
sg24
S'../views/GTiff/clim.current.bio18.tif'
p4162
sg26
S'current'
p4163
sg28
S'6279'
p4164
sg30
S'clim.current.bio18.tif'
p4165
sg32
g33
sg34
g35
sg36
S'Precipitation of Warmest Quarter Current Climate 1960-2000'
p4166
sg38
S'clim.current.bio18'
p4167
sg40
g41
sg42
S'current'
p4168
sg44
S'current'
p4169
ssS'bio19'
p4170
(dp4171
g8
S'clim'
p4172
sg10
I4326
sg11
S'yes'
p4173
sg13
S'current.bio19'
p4174
sg15
I273
sg16
S'bio19'
p4175
sg18
S'Precipitation of Coldest Quarter'
p4176
sg20
S'climate'
p4177
sg22
S'2015-03-24 21:05:32'
p4178
sg24
S'../views/GTiff/clim.current.bio19.tif'
p4179
sg26
S'current'
p4180
sg28
S'6265'
p4181
sg30
S'clim.current.bio19.tif'
p4182
sg32
g33
sg34
g35
sg36
S'Precipitation of Coldest Quarter Current Climate 1960-2000'
p4183
sg38
S'clim.current.bio19'
p4184
sg40
g41
sg42
S'current'
p4185
sg44
S'current'
p4186
ssS'bio08'
p4187
(dp4188
g8
S'clim'
p4189
sg10
I4326
sg11
S'no'
p4190
sg13
S'current.bio08'
p4191
sg15
I40
sg16
S'bio08'
p4192
sg18
S'Mean Temperature of Wettest Quarter'
p4193
sg20
S'climate'
p4194
sg22
S'2015-03-24 21:05:32'
p4195
sg24
S'../views/GTiff/clim.current.bio08.tif'
p4196
sg26
S'current'
p4197
sg28
S'6282'
p4198
sg30
S'clim.current.bio08.tif'
p4199
sg32
g33
sg34
g35
sg36
S'Mean Temperature of Wettest Quarter Current Climate 1960-2000'
p4200
sg38
S'clim.current.bio08'
p4201
sg40
g41
sg42
S'current'
p4202
sg44
S'current'
p4203
ssS'bio04'
p4204
(dp4205
g8
S'clim'
p4206
sg10
I4326
sg11
S'yes'
p4207
sg13
S'current.bio04'
p4208
sg15
I281
sg16
S'bio04'
p4209
sg18
S'Temperature Seasonality (standard deviation *100)'
p4210
sg20
S'climate'
p4211
sg22
S'2015-03-24 21:05:32'
p4212
sg24
S'../views/GTiff/clim.current.bio04.tif'
p4213
sg26
S'current'
p4214
sg28
S'6274'
p4215
sg30
S'clim.current.bio04.tif'
p4216
sg32
g33
sg34
g35
sg36
S'Temperature Seasonality (standard deviation *100) Current Climate 1960-2000'
p4217
sg38
S'clim.current.bio04'
p4218
sg40
g41
sg42
S'current'
p4219
sg44
S'current'
p4220
ssS'bio02'
p4221
(dp4222
g8
S'clim'
p4223
sg10
I4326
sg11
S'yes'
p4224
sg13
S'current.bio02'
p4225
sg15
I124
sg16
S'bio02'
p4226
sg18
S'Mean Diurnal Range (Mean of monthly (max temp - min temp))'
p4227
sg20
S'climate'
p4228
sg22
S'2015-03-24 21:05:32'
p4229
sg24
S'../views/GTiff/clim.current.bio02.tif'
p4230
sg26
S'current'
p4231
sg28
S'6276'
p4232
sg30
S'clim.current.bio02.tif'
p4233
sg32
g33
sg34
g35
sg36
S'Mean Diurnal Range (Mean of monthly (max temp - min temp)) Current Climate 1960-2000'
p4234
sg38
S'clim.current.bio02'
p4235
sg40
g41
sg42
S'current'
p4236
sg44
S'current'
p4237
sssS'ggs4550'
p4238
(dp4239
S'bio07'
p4240
(dp4241
g8
S'clim'
p4242
sg10
I4326
sg11
S'no'
p4243
sg13
S'ggs4550.bio07'
p4244
sg15
I302
sg16
S'bio07'
p4245
sg18
S'Temperature Annual Range (BIO5-BIO6)'
p4246
sg20
S'climate'
p4247
sg22
S'2015-03-24 21:05:32'
p4248
sg24
S'../views/GTiff/clim.ggs4550.bio07.tif'
p4249
sg26
S'45'
p4250
sg28
S'6586'
p4251
sg30
S'clim.ggs4550.bio07.tif'
p4252
sg32
g33
sg34
g35
sg36
S'Temperature Annual Range (BIO5-BIO6) GS RCP45 2050'
p4253
sg38
S'clim.ggs4550.bio07'
p4254
sg40
g41
sg42
S'ggs4550'
p4255
sg44
S'2050'
p4256
ssS'bio16'
p4257
(dp4258
g8
S'clim'
p4259
sg10
I4326
sg11
S'yes'
p4260
sg13
S'ggs4550.bio16'
p4261
sg15
I215
sg16
S'bio16'
p4262
sg18
S'Precipitation of Wettest Quarter'
p4263
sg20
S'climate'
p4264
sg22
S'2015-03-24 21:05:32'
p4265
sg24
S'../views/GTiff/clim.ggs4550.bio16.tif'
p4266
sg26
S'45'
p4267
sg28
S'6583'
p4268
sg30
S'clim.ggs4550.bio16.tif'
p4269
sg32
g33
sg34
g35
sg36
S'Precipitation of Wettest Quarter GS RCP45 2050'
p4270
sg38
S'clim.ggs4550.bio16'
p4271
sg40
g41
sg42
S'ggs4550'
p4272
sg44
S'2050'
p4273
ssS'bio06'
p4274
(dp4275
g8
S'clim'
p4276
sg10
I4326
sg11
S'yes'
p4277
sg13
S'ggs4550.bio06'
p4278
sg15
I106
sg16
S'bio06'
p4279
sg18
S'Min Temperature of Coldest Month'
p4280
sg20
S'climate'
p4281
sg22
S'2015-03-24 21:05:32'
p4282
sg24
S'../views/GTiff/clim.ggs4550.bio06.tif'
p4283
sg26
S'45'
p4284
sg28
S'6587'
p4285
sg30
S'clim.ggs4550.bio06.tif'
p4286
sg32
g33
sg34
g35
sg36
S'Min Temperature of Coldest Month GS RCP45 2050'
p4287
sg38
S'clim.ggs4550.bio06'
p4288
sg40
g41
sg42
S'ggs4550'
p4289
sg44
S'2050'
p4290
ssS'bio09'
p4291
(dp4292
g8
S'clim'
p4293
sg10
I4326
sg11
S'yes'
p4294
sg13
S'ggs4550.bio09'
p4295
sg15
I232
sg16
S'bio09'
p4296
sg18
S'Mean Temperature of Driest Quarter'
p4297
sg20
S'climate'
p4298
sg22
S'2015-03-24 21:05:32'
p4299
sg24
S'../views/GTiff/clim.ggs4550.bio09.tif'
p4300
sg26
S'45'
p4301
sg28
S'6596'
p4302
sg30
S'clim.ggs4550.bio09.tif'
p4303
sg32
g33
sg34
g35
sg36
S'Mean Temperature of Driest Quarter GS RCP45 2050'
p4304
sg38
S'clim.ggs4550.bio09'
p4305
sg40
g41
sg42
S'ggs4550'
p4306
sg44
S'2050'
p4307
ssS'bio05'
p4308
(dp4309
g8
S'clim'
p4310
sg10
I4326
sg11
S'yes'
p4311
sg13
S'ggs4550.bio05'
p4312
sg15
I142
sg16
S'bio05'
p4313
sg18
S'Max Temperature of Warmest Month'
p4314
sg20
S'climate'
p4315
sg22
S'2015-03-24 21:05:32'
p4316
sg24
S'../views/GTiff/clim.ggs4550.bio05.tif'
p4317
sg26
S'45'
p4318
sg28
S'6588'
p4319
sg30
S'clim.ggs4550.bio05.tif'
p4320
sg32
g33
sg34
g35
sg36
S'Max Temperature of Warmest Month GS RCP45 2050'
p4321
sg38
S'clim.ggs4550.bio05'
p4322
sg40
g41
sg42
S'ggs4550'
p4323
sg44
S'2050'
p4324
ssS'bio10'
p4325
(dp4326
g8
S'clim'
p4327
sg10
I4326
sg11
S'yes'
p4328
sg13
S'ggs4550.bio10'
p4329
sg15
I260
sg16
S'bio10'
p4330
sg18
S'Mean Temperature of Warmest Quarter'
p4331
sg20
S'climate'
p4332
sg22
S'2015-03-24 21:05:32'
p4333
sg24
S'../views/GTiff/clim.ggs4550.bio10.tif'
p4334
sg26
S'45'
p4335
sg28
S'6579'
p4336
sg30
S'clim.ggs4550.bio10.tif'
p4337
sg32
g33
sg34
g35
sg36
S'Mean Temperature of Warmest Quarter GS RCP45 2050'
p4338
sg38
S'clim.ggs4550.bio10'
p4339
sg40
g41
sg42
S'ggs4550'
p4340
sg44
S'2050'
p4341
ssS'bio11'
p4342
(dp4343
g8
S'clim'
p4344
sg10
I4326
sg11
S'yes'
p4345
sg13
S'ggs4550.bio11'
p4346
sg15
I111
sg16
S'bio11'
p4347
sg18
S'Mean Temperature of Coldest Quarter'
p4348
sg20
S'climate'
p4349
sg22
S'2015-03-24 21:05:32'
p4350
sg24
S'../views/GTiff/clim.ggs4550.bio11.tif'
p4351
sg26
S'45'
p4352
sg28
S'6582'
p4353
sg30
S'clim.ggs4550.bio11.tif'
p4354
sg32
g33
sg34
g35
sg36
S'Mean Temperature of Coldest Quarter GS RCP45 2050'
p4355
sg38
S'clim.ggs4550.bio11'
p4356
sg40
g41
sg42
S'ggs4550'
p4357
sg44
S'2050'
p4358
ssS'bio12'
p4359
(dp4360
g8
S'clim'
p4361
sg10
I4326
sg11
S'no'
p4362
sg13
S'ggs4550.bio12'
p4363
sg15
I154
sg16
S'bio12'
p4364
sg18
S'Annual Precipitation'
p4365
sg20
S'climate'
p4366
sg22
S'2015-03-24 21:05:32'
p4367
sg24
S'../views/GTiff/clim.ggs4550.bio12.tif'
p4368
sg26
S'45'
p4369
sg28
S'6585'
p4370
sg30
S'clim.ggs4550.bio12.tif'
p4371
sg32
g33
sg34
g35
sg36
S'Annual Precipitation GS RCP45 2050'
p4372
sg38
S'clim.ggs4550.bio12'
p4373
sg40
g41
sg42
S'ggs4550'
p4374
sg44
S'2050'
p4375
ssS'bio13'
p4376
(dp4377
g8
S'clim'
p4378
sg10
I4326
sg11
S'yes'
p4379
sg13
S'ggs4550.bio13'
p4380
sg15
I258
sg16
S'bio13'
p4381
sg18
S'Precipitation of Wettest Month'
p4382
sg20
S'climate'
p4383
sg22
S'2015-03-24 21:05:32'
p4384
sg24
S'../views/GTiff/clim.ggs4550.bio13.tif'
p4385
sg26
S'45'
p4386
sg28
S'6581'
p4387
sg30
S'clim.ggs4550.bio13.tif'
p4388
sg32
g33
sg34
g35
sg36
S'Precipitation of Wettest Month GS RCP45 2050'
p4389
sg38
S'clim.ggs4550.bio13'
p4390
sg40
g41
sg42
S'ggs4550'
p4391
sg44
S'2050'
p4392
ssS'bio14'
p4393
(dp4394
g8
S'clim'
p4395
sg10
I4326
sg11
S'yes'
p4396
sg13
S'ggs4550.bio14'
p4397
sg15
I206
sg16
S'bio14'
p4398
sg18
S'Precipitation of Driest Month'
p4399
sg20
S'climate'
p4400
sg22
S'2015-03-24 21:05:32'
p4401
sg24
S'../views/GTiff/clim.ggs4550.bio14.tif'
p4402
sg26
S'45'
p4403
sg28
S'6595'
p4404
sg30
S'clim.ggs4550.bio14.tif'
p4405
sg32
g33
sg34
g35
sg36
S'Precipitation of Driest Month GS RCP45 2050'
p4406
sg38
S'clim.ggs4550.bio14'
p4407
sg40
g41
sg42
S'ggs4550'
p4408
sg44
S'2050'
p4409
ssS'bio15'
p4410
(dp4411
g8
S'clim'
p4412
sg10
I4326
sg11
S'no'
p4413
sg13
S'ggs4550.bio15'
p4414
sg15
I297
sg16
S'bio15'
p4415
sg18
S'Precipitation Seasonality (Coefficient of Variation)'
p4416
sg20
S'climate'
p4417
sg22
S'2015-03-24 21:05:32'
p4418
sg24
S'../views/GTiff/clim.ggs4550.bio15.tif'
p4419
sg26
S'45'
p4420
sg28
S'6584'
p4421
sg30
S'clim.ggs4550.bio15.tif'
p4422
sg32
g33
sg34
g35
sg36
S'Precipitation Seasonality (Coefficient of Variation) GS RCP45 2050'
p4423
sg38
S'clim.ggs4550.bio15'
p4424
sg40
g41
sg42
S'ggs4550'
p4425
sg44
S'2050'
p4426
ssS'bio01'
p4427
(dp4428
g8
S'clim'
p4429
sg10
I4326
sg11
S'no'
p4430
sg13
S'ggs4550.bio01'
p4431
sg15
I271
sg16
S'bio01'
p4432
sg18
S'Annual Mean Temperature'
p4433
sg20
S'climate'
p4434
sg22
S'2015-03-24 21:05:32'
p4435
sg24
S'../views/GTiff/clim.ggs4550.bio01.tif'
p4436
sg26
S'45'
p4437
sg28
S'6592'
p4438
sg30
S'clim.ggs4550.bio01.tif'
p4439
sg32
g33
sg34
g35
sg36
S'Annual Mean Temperature GS RCP45 2050'
p4440
sg38
S'clim.ggs4550.bio01'
p4441
sg40
g41
sg42
S'ggs4550'
p4442
sg44
S'2050'
p4443
ssS'bio17'
p4444
(dp4445
g8
S'clim'
p4446
sg10
I4326
sg11
S'yes'
p4447
sg13
S'ggs4550.bio17'
p4448
sg15
I150
sg16
S'bio17'
p4449
sg18
S'Precipitation of Driest Quarter'
p4450
sg20
S'climate'
p4451
sg22
S'2015-03-24 21:05:32'
p4452
sg24
S'../views/GTiff/clim.ggs4550.bio17.tif'
p4453
sg26
S'45'
p4454
sg28
S'6593'
p4455
sg30
S'clim.ggs4550.bio17.tif'
p4456
sg32
g33
sg34
g35
sg36
S'Precipitation of Driest Quarter GS RCP45 2050'
p4457
sg38
S'clim.ggs4550.bio17'
p4458
sg40
g41
sg42
S'ggs4550'
p4459
sg44
S'2050'
p4460
ssS'bio18'
p4461
(dp4462
g8
S'clim'
p4463
sg10
I4326
sg11
S'no'
p4464
sg13
S'ggs4550.bio18'
p4465
sg15
I67
sg16
S'bio18'
p4466
sg18
S'Precipitation of Warmest Quarter'
p4467
sg20
S'climate'
p4468
sg22
S'2015-03-24 21:05:32'
p4469
sg24
S'../views/GTiff/clim.ggs4550.bio18.tif'
p4470
sg26
S'45'
p4471
sg28
S'6594'
p4472
sg30
S'clim.ggs4550.bio18.tif'
p4473
sg32
g33
sg34
g35
sg36
S'Precipitation of Warmest Quarter GS RCP45 2050'
p4474
sg38
S'clim.ggs4550.bio18'
p4475
sg40
g41
sg42
S'ggs4550'
p4476
sg44
S'2050'
p4477
ssS'bio19'
p4478
(dp4479
g8
S'clim'
p4480
sg10
I4326
sg11
S'yes'
p4481
sg13
S'ggs4550.bio19'
p4482
sg15
I205
sg16
S'bio19'
p4483
sg18
S'Precipitation of Coldest Quarter'
p4484
sg20
S'climate'
p4485
sg22
S'2015-03-24 21:05:32'
p4486
sg24
S'../views/GTiff/clim.ggs4550.bio19.tif'
p4487
sg26
S'45'
p4488
sg28
S'6580'
p4489
sg30
S'clim.ggs4550.bio19.tif'
p4490
sg32
g33
sg34
g35
sg36
S'Precipitation of Coldest Quarter GS RCP45 2050'
p4491
sg38
S'clim.ggs4550.bio19'
p4492
sg40
g41
sg42
S'ggs4550'
p4493
sg44
S'2050'
p4494
ssS'bio08'
p4495
(dp4496
g8
S'clim'
p4497
sg10
I4326
sg11
S'no'
p4498
sg13
S'ggs4550.bio08'
p4499
sg15
I223
sg16
S'bio08'
p4500
sg18
S'Mean Temperature of Wettest Quarter'
p4501
sg20
S'climate'
p4502
sg22
S'2015-03-24 21:05:32'
p4503
sg24
S'../views/GTiff/clim.ggs4550.bio08.tif'
p4504
sg26
S'45'
p4505
sg28
S'6597'
p4506
sg30
S'clim.ggs4550.bio08.tif'
p4507
sg32
g33
sg34
g35
sg36
S'Mean Temperature of Wettest Quarter GS RCP45 2050'
p4508
sg38
S'clim.ggs4550.bio08'
p4509
sg40
g41
sg42
S'ggs4550'
p4510
sg44
S'2050'
p4511
ssS'bio03'
p4512
(dp4513
g8
S'clim'
p4514
sg10
I4326
sg11
S'yes'
p4515
sg13
S'ggs4550.bio03'
p4516
sg15
I250
sg16
S'bio03'
p4517
sg18
S'Isothermality (BIO2/BIO7) (* 100)'
p4518
sg20
S'climate'
p4519
sg22
S'2015-03-24 21:05:32'
p4520
sg24
S'../views/GTiff/clim.ggs4550.bio03.tif'
p4521
sg26
S'45'
p4522
sg28
S'6590'
p4523
sg30
S'clim.ggs4550.bio03.tif'
p4524
sg32
g33
sg34
g35
sg36
S'Isothermality (BIO2/BIO7) (* 100) GS RCP45 2050'
p4525
sg38
S'clim.ggs4550.bio03'
p4526
sg40
g41
sg42
S'ggs4550'
p4527
sg44
S'2050'
p4528
ssS'bio04'
p4529
(dp4530
g8
S'clim'
p4531
sg10
I4326
sg11
S'yes'
p4532
sg13
S'ggs4550.bio04'
p4533
sg15
I210
sg16
S'bio04'
p4534
sg18
S'Temperature Seasonality (standard deviation *100)'
p4535
sg20
S'climate'
p4536
sg22
S'2015-03-24 21:05:32'
p4537
sg24
S'../views/GTiff/clim.ggs4550.bio04.tif'
p4538
sg26
S'45'
p4539
sg28
S'6589'
p4540
sg30
S'clim.ggs4550.bio04.tif'
p4541
sg32
g33
sg34
g35
sg36
S'Temperature Seasonality (standard deviation *100) GS RCP45 2050'
p4542
sg38
S'clim.ggs4550.bio04'
p4543
sg40
g41
sg42
S'ggs4550'
p4544
sg44
S'2050'
p4545
ssS'bio02'
p4546
(dp4547
g8
S'clim'
p4548
sg10
I4326
sg11
S'yes'
p4549
sg13
S'ggs4550.bio02'
p4550
sg15
I43
sg16
S'bio02'
p4551
sg18
S'Mean Diurnal Range (Mean of monthly (max temp - min temp))'
p4552
sg20
S'climate'
p4553
sg22
S'2015-03-24 21:05:32'
p4554
sg24
S'../views/GTiff/clim.ggs4550.bio02.tif'
p4555
sg26
S'45'
p4556
sg28
S'6591'
p4557
sg30
S'clim.ggs4550.bio02.tif'
p4558
sg32
g33
sg34
g35
sg36
S'Mean Diurnal Range (Mean of monthly (max temp - min temp)) GS RCP45 2050'
p4559
sg38
S'clim.ggs4550.bio02'
p4560
sg40
g41
sg42
g4238
sg44
S'2050'
p4561
sssS'he6070'
p4562
(dp4563
S'bio10'
p4564
(dp4565
g8
S'clim'
p4566
sg10
I4326
sg11
S'yes'
p4567
sg13
S'he6070.bio10'
p4568
sg15
I48
sg16
S'bio10'
p4569
sg18
S'Mean Temperature of Warmest Quarter'
p4570
sg20
S'climate'
p4571
sg22
S'2015-03-24 21:05:32'
p4572
sg24
S'../views/GTiff/clim.he6070.bio10.tif'
p4573
sg26
S'60'
p4574
sg28
S'6356'
p4575
sg30
S'clim.he6070.bio10.tif'
p4576
sg32
g33
sg34
g35
sg36
S'Mean Temperature of Warmest Quarter HE RCP60 2070'
p4577
sg38
S'clim.he6070.bio10'
p4578
sg40
g41
sg42
S'he6070'
p4579
sg44
S'2070'
p4580
ssS'bio01'
p4581
(dp4582
g8
S'clim'
p4583
sg10
I4326
sg11
S'yes'
p4584
sg13
S'he6070.bio01'
p4585
sg15
I55
sg16
S'bio01'
p4586
sg18
S'Annual Mean Temperature'
p4587
sg20
S'climate'
p4588
sg22
S'2015-03-24 21:05:32'
p4589
sg24
S'../views/GTiff/clim.he6070.bio01.tif'
p4590
sg26
S'60'
p4591
sg28
S'6369'
p4592
sg30
S'clim.he6070.bio01.tif'
p4593
sg32
g33
sg34
g35
sg36
S'Annual Mean Temperature HE RCP60 2070'
p4594
sg38
S'clim.he6070.bio01'
p4595
sg40
g41
sg42
S'he6070'
p4596
sg44
S'2070'
p4597
ssS'bio11'
p4598
(dp4599
g8
S'clim'
p4600
sg10
I4326
sg11
S'yes'
p4601
sg13
S'he6070.bio11'
p4602
sg15
I41
sg16
S'bio11'
p4603
sg18
S'Mean Temperature of Coldest Quarter'
p4604
sg20
S'climate'
p4605
sg22
S'2015-03-24 21:05:32'
p4606
sg24
S'../views/GTiff/clim.he6070.bio11.tif'
p4607
sg26
S'60'
p4608
sg28
S'6359'
p4609
sg30
S'clim.he6070.bio11.tif'
p4610
sg32
g33
sg34
g35
sg36
S'Mean Temperature of Coldest Quarter HE RCP60 2070'
p4611
sg38
S'clim.he6070.bio11'
p4612
sg40
g41
sg42
S'he6070'
p4613
sg44
S'2070'
p4614
ssS'bio09'
p4615
(dp4616
g8
S'clim'
p4617
sg10
I4326
sg11
S'yes'
p4618
sg13
S'he6070.bio09'
p4619
sg15
I1
sg16
S'bio09'
p4620
sg18
S'Mean Temperature of Driest Quarter'
p4621
sg20
S'climate'
p4622
sg22
S'2015-03-24 21:05:32'
p4623
sg24
S'../views/GTiff/clim.he6070.bio09.tif'
p4624
sg26
S'60'
p4625
sg28
S'6373'
p4626
sg30
S'clim.he6070.bio09.tif'
p4627
sg32
g33
sg34
g35
sg36
S'Mean Temperature of Driest Quarter HE RCP60 2070'
p4628
sg38
S'clim.he6070.bio09'
p4629
sg40
g41
sg42
g4562
sg44
S'2070'
p4630
ssS'bio05'
p4631
(dp4632
g8
S'clim'
p4633
sg10
I4326
sg11
S'yes'
p4634
sg13
S'he6070.bio05'
p4635
sg15
I193
sg16
S'bio05'
p4636
sg18
S'Max Temperature of Warmest Month'
p4637
sg20
S'climate'
p4638
sg22
S'2015-03-24 21:05:32'
p4639
sg24
S'../views/GTiff/clim.he6070.bio05.tif'
p4640
sg26
S'60'
p4641
sg28
S'6365'
p4642
sg30
S'clim.he6070.bio05.tif'
p4643
sg32
g33
sg34
g35
sg36
S'Max Temperature of Warmest Month HE RCP60 2070'
p4644
sg38
S'clim.he6070.bio05'
p4645
sg40
g41
sg42
S'he6070'
p4646
sg44
S'2070'
p4647
ssS'bio07'
p4648
(dp4649
g8
S'clim'
p4650
sg10
I4326
sg11
S'yes'
p4651
sg13
S'he6070.bio07'
p4652
sg15
I311
sg16
S'bio07'
p4653
sg18
S'Temperature Annual Range (BIO5-BIO6)'
p4654
sg20
S'climate'
p4655
sg22
S'2015-03-24 21:05:32'
p4656
sg24
S'../views/GTiff/clim.he6070.bio07.tif'
p4657
sg26
S'60'
p4658
sg28
S'6363'
p4659
sg30
S'clim.he6070.bio07.tif'
p4660
sg32
g33
sg34
g35
sg36
S'Temperature Annual Range (BIO5-BIO6) HE RCP60 2070'
p4661
sg38
S'clim.he6070.bio07'
p4662
sg40
g41
sg42
S'he6070'
p4663
sg44
S'2070'
p4664
ssS'bio06'
p4665
(dp4666
g8
S'clim'
p4667
sg10
I4326
sg11
S'yes'
p4668
sg13
S'he6070.bio06'
p4669
sg15
I309
sg16
S'bio06'
p4670
sg18
S'Min Temperature of Coldest Month'
p4671
sg20
S'climate'
p4672
sg22
S'2015-03-24 21:05:32'
p4673
sg24
S'../views/GTiff/clim.he6070.bio06.tif'
p4674
sg26
S'60'
p4675
sg28
S'6364'
p4676
sg30
S'clim.he6070.bio06.tif'
p4677
sg32
g33
sg34
g35
sg36
S'Min Temperature of Coldest Month HE RCP60 2070'
p4678
sg38
S'clim.he6070.bio06'
p4679
sg40
g41
sg42
S'he6070'
p4680
sg44
S'2070'
p4681
ssS'bio12'
p4682
(dp4683
g8
S'clim'
p4684
sg10
I4326
sg11
S'yes'
p4685
sg13
S'he6070.bio12'
p4686
sg15
I305
sg16
S'bio12'
p4687
sg18
S'Annual Precipitation'
p4688
sg20
S'climate'
p4689
sg22
S'2015-03-24 21:05:32'
p4690
sg24
S'../views/GTiff/clim.he6070.bio12.tif'
p4691
sg26
S'60'
p4692
sg28
S'6362'
p4693
sg30
S'clim.he6070.bio12.tif'
p4694
sg32
g33
sg34
g35
sg36
S'Annual Precipitation HE RCP60 2070'
p4695
sg38
S'clim.he6070.bio12'
p4696
sg40
g41
sg42
S'he6070'
p4697
sg44
S'2070'
p4698
ssS'bio13'
p4699
(dp4700
g8
S'clim'
p4701
sg10
I4326
sg11
S'yes'
p4702
sg13
S'he6070.bio13'
p4703
sg15
I64
sg16
S'bio13'
p4704
sg18
S'Precipitation of Wettest Month'
p4705
sg20
S'climate'
p4706
sg22
S'2015-03-24 21:05:32'
p4707
sg24
S'../views/GTiff/clim.he6070.bio13.tif'
p4708
sg26
S'60'
p4709
sg28
S'6358'
p4710
sg30
S'clim.he6070.bio13.tif'
p4711
sg32
g33
sg34
g35
sg36
S'Precipitation of Wettest Month HE RCP60 2070'
p4712
sg38
S'clim.he6070.bio13'
p4713
sg40
g41
sg42
S'he6070'
p4714
sg44
S'2070'
p4715
ssS'bio14'
p4716
(dp4717
g8
S'clim'
p4718
sg10
I4326
sg11
S'yes'
p4719
sg13
S'he6070.bio14'
p4720
sg15
I188
sg16
S'bio14'
p4721
sg18
S'Precipitation of Driest Month'
p4722
sg20
S'climate'
p4723
sg22
S'2015-03-24 21:05:32'
p4724
sg24
S'../views/GTiff/clim.he6070.bio14.tif'
p4725
sg26
S'60'
p4726
sg28
S'6372'
p4727
sg30
S'clim.he6070.bio14.tif'
p4728
sg32
g33
sg34
g35
sg36
S'Precipitation of Driest Month HE RCP60 2070'
p4729
sg38
S'clim.he6070.bio14'
p4730
sg40
g41
sg42
S'he6070'
p4731
sg44
S'2070'
p4732
ssS'bio15'
p4733
(dp4734
g8
S'clim'
p4735
sg10
I4326
sg11
S'yes'
p4736
sg13
S'he6070.bio15'
p4737
sg15
I294
sg16
S'bio15'
p4738
sg18
S'Precipitation Seasonality (Coefficient of Variation)'
p4739
sg20
S'climate'
p4740
sg22
S'2015-03-24 21:05:32'
p4741
sg24
S'../views/GTiff/clim.he6070.bio15.tif'
p4742
sg26
S'60'
p4743
sg28
S'6361'
p4744
sg30
S'clim.he6070.bio15.tif'
p4745
sg32
g33
sg34
g35
sg36
S'Precipitation Seasonality (Coefficient of Variation) HE RCP60 2070'
p4746
sg38
S'clim.he6070.bio15'
p4747
sg40
g41
sg42
S'he6070'
p4748
sg44
S'2070'
p4749
ssS'bio16'
p4750
(dp4751
g8
S'clim'
p4752
sg10
I4326
sg11
S'yes'
p4753
sg13
S'he6070.bio16'
p4754
sg15
I159
sg16
S'bio16'
p4755
sg18
S'Precipitation of Wettest Quarter'
p4756
sg20
S'climate'
p4757
sg22
S'2015-03-24 21:05:32'
p4758
sg24
S'../views/GTiff/clim.he6070.bio16.tif'
p4759
sg26
S'60'
p4760
sg28
S'6360'
p4761
sg30
S'clim.he6070.bio16.tif'
p4762
sg32
g33
sg34
g35
sg36
S'Precipitation of Wettest Quarter HE RCP60 2070'
p4763
sg38
S'clim.he6070.bio16'
p4764
sg40
g41
sg42
S'he6070'
p4765
sg44
S'2070'
p4766
ssS'bio17'
p4767
(dp4768
g8
S'clim'
p4769
sg10
I4326
sg11
S'yes'
p4770
sg13
S'he6070.bio17'
p4771
sg15
I36
sg16
S'bio17'
p4772
sg18
S'Precipitation of Driest Quarter'
p4773
sg20
S'climate'
p4774
sg22
S'2015-03-24 21:05:32'
p4775
sg24
S'../views/GTiff/clim.he6070.bio17.tif'
p4776
sg26
S'60'
p4777
sg28
S'6370'
p4778
sg30
S'clim.he6070.bio17.tif'
p4779
sg32
g33
sg34
g35
sg36
S'Precipitation of Driest Quarter HE RCP60 2070'
p4780
sg38
S'clim.he6070.bio17'
p4781
sg40
g41
sg42
S'he6070'
p4782
sg44
S'2070'
p4783
ssS'bio18'
p4784
(dp4785
g8
S'clim'
p4786
sg10
I4326
sg11
S'yes'
p4787
sg13
S'he6070.bio18'
p4788
sg15
I108
sg16
S'bio18'
p4789
sg18
S'Precipitation of Warmest Quarter'
p4790
sg20
S'climate'
p4791
sg22
S'2015-03-24 21:05:32'
p4792
sg24
S'../views/GTiff/clim.he6070.bio18.tif'
p4793
sg26
S'60'
p4794
sg28
S'6371'
p4795
sg30
S'clim.he6070.bio18.tif'
p4796
sg32
g33
sg34
g35
sg36
S'Precipitation of Warmest Quarter HE RCP60 2070'
p4797
sg38
S'clim.he6070.bio18'
p4798
sg40
g41
sg42
S'he6070'
p4799
sg44
S'2070'
p4800
ssS'bio19'
p4801
(dp4802
g8
S'clim'
p4803
sg10
I4326
sg11
S'yes'
p4804
sg13
S'he6070.bio19'
p4805
sg15
I274
sg16
S'bio19'
p4806
sg18
S'Precipitation of Coldest Quarter'
p4807
sg20
S'climate'
p4808
sg22
S'2015-03-24 21:05:32'
p4809
sg24
S'../views/GTiff/clim.he6070.bio19.tif'
p4810
sg26
S'60'
p4811
sg28
S'6357'
p4812
sg30
S'clim.he6070.bio19.tif'
p4813
sg32
g33
sg34
g35
sg36
S'Precipitation of Coldest Quarter HE RCP60 2070'
p4814
sg38
S'clim.he6070.bio19'
p4815
sg40
g41
sg42
S'he6070'
p4816
sg44
S'2070'
p4817
ssS'bio08'
p4818
(dp4819
g8
S'clim'
p4820
sg10
I4326
sg11
S'yes'
p4821
sg13
S'he6070.bio08'
p4822
sg15
I82
sg16
S'bio08'
p4823
sg18
S'Mean Temperature of Wettest Quarter'
p4824
sg20
S'climate'
p4825
sg22
S'2015-03-24 21:05:32'
p4826
sg24
S'../views/GTiff/clim.he6070.bio08.tif'
p4827
sg26
S'60'
p4828
sg28
S'6374'
p4829
sg30
S'clim.he6070.bio08.tif'
p4830
sg32
g33
sg34
g35
sg36
S'Mean Temperature of Wettest Quarter HE RCP60 2070'
p4831
sg38
S'clim.he6070.bio08'
p4832
sg40
g41
sg42
S'he6070'
p4833
sg44
S'2070'
p4834
ssS'bio03'
p4835
(dp4836
g8
S'clim'
p4837
sg10
I4326
sg11
S'yes'
p4838
sg13
S'he6070.bio03'
p4839
sg15
I243
sg16
S'bio03'
p4840
sg18
S'Isothermality (BIO2/BIO7) (* 100)'
p4841
sg20
S'climate'
p4842
sg22
S'2015-03-24 21:05:32'
p4843
sg24
S'../views/GTiff/clim.he6070.bio03.tif'
p4844
sg26
S'60'
p4845
sg28
S'6367'
p4846
sg30
S'clim.he6070.bio03.tif'
p4847
sg32
g33
sg34
g35
sg36
S'Isothermality (BIO2/BIO7) (* 100) HE RCP60 2070'
p4848
sg38
S'clim.he6070.bio03'
p4849
sg40
g41
sg42
S'he6070'
p4850
sg44
S'2070'
p4851
ssS'bio04'
p4852
(dp4853
g8
S'clim'
p4854
sg10
I4326
sg11
S'yes'
p4855
sg13
S'he6070.bio04'
p4856
sg15
I246
sg16
S'bio04'
p4857
sg18
S'Temperature Seasonality (standard deviation *100)'
p4858
sg20
S'climate'
p4859
sg22
S'2015-03-24 21:05:32'
p4860
sg24
S'../views/GTiff/clim.he6070.bio04.tif'
p4861
sg26
S'60'
p4862
sg28
S'6366'
p4863
sg30
S'clim.he6070.bio04.tif'
p4864
sg32
g33
sg34
g35
sg36
S'Temperature Seasonality (standard deviation *100) HE RCP60 2070'
p4865
sg38
S'clim.he6070.bio04'
p4866
sg40
g41
sg42
S'he6070'
p4867
sg44
S'2070'
p4868
ssS'bio02'
p4869
(dp4870
g8
S'clim'
p4871
sg10
I4326
sg11
S'yes'
p4872
sg13
S'he6070.bio02'
p4873
sg15
I185
sg16
S'bio02'
p4874
sg18
S'Mean Diurnal Range (Mean of monthly (max temp - min temp))'
p4875
sg20
S'climate'
p4876
sg22
S'2015-03-24 21:05:32'
p4877
sg24
S'../views/GTiff/clim.he6070.bio02.tif'
p4878
sg26
S'60'
p4879
sg28
S'6368'
p4880
sg30
S'clim.he6070.bio02.tif'
p4881
sg32
g33
sg34
g35
sg36
S'Mean Diurnal Range (Mean of monthly (max temp - min temp)) HE RCP60 2070'
p4882
sg38
S'clim.he6070.bio02'
p4883
sg40
g41
sg42
S'he6070'
p4884
sg44
S'2070'
p4885
ssssS'env'
p4886
(dp4887
S'hwsd'
p4888
(dp4889
S't_gravel'
p4890
(dp4891
g8
g4886
sg10
I4326
sg11
S'no'
p4892
sg13
S'hwsd.t_gravel'
p4893
sg15
I32
sg16
S't_gravel'
p4894
sg18
S'HWSD topsoil gravel'
p4895
sg20
S'environmental'
p4896
sg22
S'2015-03-24 21:05:32'
p4897
sg24
S'../views/GTiff/env.hwsd.t_gravel.tif'
p4898
sg26
S'current'
p4899
sg28
S'6346'
p4900
sg30
S'env.hwsd.t_gravel.tif'
p4901
sg32
g33
sg34
g35
sg36
S'Harmonized World Soil Database topsoil gravel (% vol.)'
p4902
sg38
S'env.hwsd.t_gravel'
p4903
sg40
g41
sg42
g4888
sg44
S'current'
p4904
ssS't_caco3'
p4905
(dp4906
g8
S'env'
p4907
sg10
I4326
sg11
S'yes'
p4908
sg13
S'hwsd.t_caco3'
p4909
sg15
I187
sg16
S't_caco3'
p4910
sg18
S'HWSD topsoil CACO3'
p4911
sg20
S'environmental'
p4912
sg22
S'2015-03-24 21:05:32'
p4913
sg24
S'../views/GTiff/env.hwsd.t_caco3.tif'
p4914
sg26
S'current'
p4915
sg28
S'6349'
p4916
sg30
S'env.hwsd.t_caco3.tif'
p4917
sg32
g33
sg34
g35
sg36
S'Harmonized World Soil Database topsoil CACO3 (% weight)'
p4918
sg38
S'env.hwsd.t_caco3'
p4919
sg40
g41
sg42
S'hwsd'
p4920
sg44
S'current'
p4921
ssS't_ph'
p4922
(dp4923
g8
S'env'
p4924
sg10
I4326
sg11
S'no'
p4925
sg13
S'hwsd.t_ph'
p4926
sg15
I211
sg16
S't_ph'
p4927
sg18
S'HWSD topsoil pH'
p4928
sg20
S'environmental'
p4929
sg22
S'2015-03-24 21:05:32'
p4930
sg24
S'../views/GTiff/env.hwsd.t_ph.tif'
p4931
sg26
S'current'
p4932
sg28
S'6348'
p4933
sg30
S'env.hwsd.t_ph.tif'
p4934
sg32
g33
sg34
g35
sg36
S'Harmonized World Soil Database topsoil pH (log[H+])'
p4935
sg38
S'env.hwsd.t_ph'
p4936
sg40
g41
sg42
S'hwsd'
p4937
sg44
S'current'
p4938
ssS't_sand'
p4939
(dp4940
g8
S'env'
p4941
sg10
I4326
sg11
S'no'
p4942
sg13
S'hwsd.t_sand'
p4943
sg15
I239
sg16
S't_sand'
p4944
sg18
S'HWSD topsoil sand'
p4945
sg20
S'environmental'
p4946
sg22
S'2015-03-24 21:05:32'
p4947
sg24
S'../views/GTiff/env.hwsd.t_sand.tif'
p4948
sg26
S'current'
p4949
sg28
S'6347'
p4950
sg30
S'env.hwsd.t_sand.tif'
p4951
sg32
g33
sg34
g35
sg36
S'Harmonized World Soil Database topsoil sand (% frac.)'
p4952
sg38
S'env.hwsd.t_sand'
p4953
sg40
g41
sg42
S'hwsd'
p4954
sg44
S'current'
p4955
ssS't_ece'
p4956
(dp4957
g8
S'env'
p4958
sg10
I4326
sg11
S'no'
p4959
sg13
S'hwsd.t_ece'
p4960
sg15
I149
sg16
S't_ece'
p4961
sg18
S'HWSD topsoil ECE'
p4962
sg20
S'environmental'
p4963
sg22
S'2015-03-24 21:05:32'
p4964
sg24
S'../views/GTiff/env.hwsd.t_ece.tif'
p4965
sg26
S'current'
p4966
sg28
S'6350'
p4967
sg30
S'env.hwsd.t_ece.tif'
p4968
sg32
g33
sg34
g35
sg36
S'Harmonized World Soil Database topsoil ECE (salinity dS/m)'
p4969
sg38
S'env.hwsd.t_ece'
p4970
sg40
g41
sg42
S'hwsd'
p4971
sg44
S'current'
p4972
ssS't_silt'
p4973
(dp4974
g8
S'env'
p4975
sg10
I4326
sg11
S'no'
p4976
sg13
S'hwsd.t_silt'
p4977
sg15
I181
sg16
S't_silt'
p4978
sg18
S'HWSD topsoil silt'
p4979
sg20
S'environmental'
p4980
sg22
S'2015-03-24 21:05:32'
p4981
sg24
S'../views/GTiff/env.hwsd.t_silt.tif'
p4982
sg26
S'current'
p4983
sg28
S'6351'
p4984
sg30
S'env.hwsd.t_silt.tif'
p4985
sg32
g33
sg34
g35
sg36
S'Harmonized World Soil Database topsoil silt (% frac.)'
p4986
sg38
S'env.hwsd.t_silt'
p4987
sg40
g41
sg42
S'hwsd'
p4988
sg44
S'current'
p4989
ssS't_clay'
p4990
(dp4991
g8
S'env'
p4992
sg10
I4326
sg11
S'no'
p4993
sg13
S'hwsd.t_clay'
p4994
sg15
I199
sg16
S't_clay'
p4995
sg18
S'HWSD topsoil clay'
p4996
sg20
S'environmental'
p4997
sg22
S'2015-03-24 21:05:32'
p4998
sg24
S'../views/GTiff/env.hwsd.t_clay.tif'
p4999
sg26
S'current'
p5000
sg28
S'6352'
p5001
sg30
S'env.hwsd.t_clay.tif'
p5002
sg32
g33
sg34
g35
sg36
S'Harmonized World Soil Database topsoil clay (% frac.)'
p5003
sg38
S'env.hwsd.t_clay'
p5004
sg40
g41
sg42
S'hwsd'
p5005
sg44
S'current'
p5006
ssS't_caso4'
p5007
(dp5008
g8
S'env'
p5009
sg10
I4326
sg11
S'yes'
p5010
sg13
S'hwsd.t_caso4'
p5011
sg15
I257
sg16
S't_caso4'
p5012
sg18
S'HWSD topsoil CASO4'
p5013
sg20
S'environmental'
p5014
sg22
S'2015-03-24 21:05:32'
p5015
sg24
S'../views/GTiff/env.hwsd.t_caso4.tif'
p5016
sg26
S'current'
p5017
sg28
S'6353'
p5018
sg30
S'env.hwsd.t_caso4.tif'
p5019
sg32
g33
sg34
g35
sg36
S'Harmonized World Soil Database topsoil CASO4 (% weight)'
p5020
sg38
S'env.hwsd.t_caso4'
p5021
sg40
g41
sg42
S'hwsd'
p5022
sg44
S'current'
p5023
ssS't_cecsoil'
p5024
(dp5025
g8
S'env'
p5026
sg10
I4326
sg11
S'yes'
p5027
sg13
S'hwsd.t_cecsoil'
p5028
sg15
I169
sg16
S't_cecsoil'
p5029
sg18
S'HWSD topsoil CECsoil'
p5030
sg20
S'environmental'
p5031
sg22
S'2015-03-24 21:05:32'
p5032
sg24
S'../views/GTiff/env.hwsd.t_cecsoil.tif'
p5033
sg26
S'current'
p5034
sg28
S'6354'
p5035
sg30
S'env.hwsd.t_cecsoil.tif'
p5036
sg32
g33
sg34
g35
sg36
S'Harmonized World Soil Database topsoil CECsoil (cmol/kg)'
p5037
sg38
S'env.hwsd.t_cecsoil'
p5038
sg40
g41
sg42
S'hwsd'
p5039
sg44
S'current'
p5040
ssS't_oc'
p5041
(dp5042
g8
S'env'
p5043
sg10
I4326
sg11
S'no'
p5044
sg13
S'hwsd.t_oc'
p5045
sg15
I172
sg16
S't_oc'
p5046
sg18
S'HWSD topsoil oc'
p5047
sg20
S'environmental'
p5048
sg22
S'2015-03-24 21:05:32'
p5049
sg24
S'../views/GTiff/env.hwsd.t_oc.tif'
p5050
sg26
S'current'
p5051
sg28
S'6355'
p5052
sg30
S'env.hwsd.t_oc.tif'
p5053
sg32
g33
sg34
g35
sg36
S'Harmonized World Soil Database topsoil organic carbon (% weight)'
p5054
sg38
S'env.hwsd.t_oc'
p5055
sg40
g41
sg42
S'hwsd'
p5056
sg44
S'current'
p5057
sssS'gmted2010'
p5058
(dp5059
S'elev_mean'
p5060
(dp5061
g8
S'env'
p5062
sg10
I4326
sg11
S'no'
p5063
sg13
S'gmted2010.elev_mean'
p5064
sg15
I320
sg16
S'elev_mean'
p5065
sg18
S'USGS GMTED2010 Mean Elevation'
p5066
sg20
S'environmental'
p5067
sg22
S'2015-03-24 21:05:32'
p5068
sg24
S'../views/GTiff/env.gmted2010.elev_mean.tif'
p5069
sg26
S'current'
p5070
sg28
S'6345'
p5071
sg30
S'env.gmted2010.elev_mean.tif'
p5072
sg32
g33
sg34
g35
sg36
S'USGS GMTED2010 Mean Elevation'
p5073
sg38
S'env.gmted2010.elev_mean'
p5074
sg40
g41
sg42
g5058
sg44
S'current'
p5075
ssssS'spat'
p5076
(dp5077
S'svd'
p5078
(dp5079
S'pc2'
p5080
(dp5081
g8
g5076
sg10
I4326
sg11
S'no'
p5082
sg13
S'svd.pc2'
p5083
sg15
I50
sg16
S'pc2'
p5084
sg18
S'PC Axis 2 of Distance Matrix'
p5085
sg20
S'spatial'
p5086
sg22
S'2015-03-24 21:05:32'
p5087
sg24
S'../views/GTiff/spat.svd.pc2.tif'
p5088
sg26
S'current'
p5089
sg28
S'6557'
p5090
sg30
S'spat.svd.pc2.tif'
p5091
sg32
g33
sg34
g35
sg36
S'PC Axis 2 of Distance Matrix spatial'
p5092
sg38
S'spat.svd.pc2'
p5093
sg40
g41
sg42
g5078
sg44
S'current'
p5094
ssS'pc3'
p5095
(dp5096
g8
S'spat'
p5097
sg10
I4326
sg11
S'no'
p5098
sg13
S'svd.pc3'
p5099
sg15
I201
sg16
S'pc3'
p5100
sg18
S'PC Axis 3 of Distance Matrix'
p5101
sg20
S'spatial'
p5102
sg22
S'2015-03-24 21:05:32'
p5103
sg24
S'../views/GTiff/spat.svd.pc3.tif'
p5104
sg26
S'current'
p5105
sg28
S'6558'
p5106
sg30
S'spat.svd.pc3.tif'
p5107
sg32
g33
sg34
g35
sg36
S'PC Axis 3 of Distance Matrix spatial'
p5108
sg38
S'spat.svd.pc3'
p5109
sg40
g41
sg42
S'svd'
p5110
sg44
S'current'
p5111
ssS'pc1'
p5112
(dp5113
g8
S'spat'
p5114
sg10
I4326
sg11
S'no'
p5115
sg13
S'svd.pc1'
p5116
sg15
I287
sg16
S'pc1'
p5117
sg18
S'PC Axis 1 of Distance Matrix'
p5118
sg20
S'spatial'
p5119
sg22
S'2015-03-24 21:05:32'
p5120
sg24
S'../views/GTiff/spat.svd.pc1.tif'
p5121
sg26
S'current'
p5122
sg28
S'6559'
p5123
sg30
S'spat.svd.pc1.tif'
p5124
sg32
g33
sg34
g35
sg36
S'PC Axis 1 of Distance Matrix spatial'
p5125
sg38
S'spat.svd.pc1'
p5126
sg40
g41
sg42
S'svd'
p5127
sg44
S'current'
p5128
ssss.