(dp1
S'Scenariobf010-he2650'
p2
(dp3
S'layers'
p4
(lp5
S'6226'
p6
aS'6239'
p7
aS'6229'
p8
aS'6243'
p9
aS'6235'
p10
aS'6233'
p11
aS'6234'
p12
aS'6232'
p13
aS'6228'
p14
aS'6242'
p15
aS'6231'
p16
aS'6230'
p17
aS'6240'
p18
aS'6241'
p19
aS'6227'
p20
aS'6238'
p21
aS'6237'
p22
aS'6236'
p23
aS'6244'
p24
aS'6346'
p25
aS'6349'
p26
aS'6348'
p27
aS'6347'
p28
aS'6350'
p29
aS'6351'
p30
aS'6352'
p31
aS'6353'
p32
aS'6354'
p33
aS'6355'
p34
aS'6345'
p35
aS'6557'
p36
aS'6558'
p37
aS'6559'
p38
asS'model'
p39
S'clim'
p40
sS'code'
p41
g2
sS'created_at'
p42
S'2015-03-24 21:18:40'
p43
sS'title'
p44
S'Climate Scenariohe2650'
p45
sS'units'
p46
S'dd'
p47
sS'epsgCode'
p48
I4326
sS'author'
p49
S'CGW'
p50
sS'resolution'
p51
S'30'
p52
sS'bioclim'
p53
S'he2650'
p54
ssS'Scenariobf010-ggs4550'
p55
(dp56
g4
(lp57
S'6586'
p58
aS'6583'
p59
aS'6587'
p60
aS'6596'
p61
aS'6588'
p62
aS'6579'
p63
aS'6582'
p64
aS'6585'
p65
aS'6581'
p66
aS'6595'
p67
aS'6584'
p68
aS'6592'
p69
aS'6593'
p70
aS'6594'
p71
aS'6580'
p72
aS'6597'
p73
aS'6590'
p74
aS'6589'
p75
aS'6591'
p76
ag25
ag26
ag27
ag28
ag29
ag30
ag31
ag32
ag33
ag34
ag35
ag36
ag37
ag38
asg39
S'clim'
p77
sg41
g55
sg42
S'2015-03-24 21:18:40'
p78
sg44
S'Climate Scenarioggs4550'
p79
sg46
g47
sg48
I4326
sg49
g50
sg51
g52
sg53
S'ggs4550'
p80
ssS'Scenariobf010-hhe4550'
p81
(dp82
g4
(lp83
S'6567'
p84
aS'6561'
p85
aS'6564'
p86
aS'6568'
p87
aS'6577'
p88
aS'6566'
p89
aS'6560'
p90
aS'6563'
p91
aS'6569'
p92
aS'6562'
p93
aS'6576'
p94
aS'6572'
p95
aS'6573'
p96
aS'6574'
p97
aS'6575'
p98
aS'6571'
p99
aS'6578'
p100
aS'6570'
p101
aS'6565'
p102
ag25
ag26
ag27
ag28
ag29
ag30
ag31
ag32
ag33
ag34
ag35
ag36
ag37
ag38
asg39
S'clim'
p103
sg41
g81
sg42
S'2015-03-24 21:18:40'
p104
sg44
S'Climate Scenariohhe4550'
p105
sg46
g47
sg48
I4326
sg49
g50
sg51
g52
sg53
S'hhe4550'
p106
ssS'Scenariobf010-gs4570'
p107
(dp108
g4
(lp109
S'6135'
p110
aS'6141'
p111
aS'6136'
p112
aS'6134'
p113
aS'6128'
p114
aS'6131'
p115
aS'6137'
p116
aS'6130'
p117
aS'6144'
p118
aS'6133'
p119
aS'6132'
p120
aS'6142'
p121
aS'6143'
p122
aS'6129'
p123
aS'6138'
p124
aS'6146'
p125
aS'6139'
p126
aS'6145'
p127
aS'6140'
p128
ag25
ag26
ag27
ag28
ag29
ag30
ag31
ag32
ag33
ag34
ag35
ag36
ag37
ag38
asg39
S'clim'
p129
sg41
g107
sg42
S'2015-03-24 21:18:40'
p130
sg44
S'Climate Scenariogs4570'
p131
sg46
g47
sg48
I4326
sg49
g50
sg51
g52
sg53
S'gs4570'
p132
ssS'Scenariobf010-ac4570'
p133
(dp134
g4
(lp135
S'6290'
p136
aS'6285'
p137
aS'6298'
p138
aS'6286'
p139
aS'6289'
p140
aS'6283'
p141
aS'6291'
p142
aS'6292'
p143
aS'6293'
p144
aS'6299'
p145
aS'6288'
p146
aS'6287'
p147
aS'6297'
p148
aS'6296'
p149
aS'6284'
p150
aS'6301'
p151
aS'6294'
p152
aS'6300'
p153
aS'6295'
p154
ag25
ag26
ag27
ag28
ag29
ag30
ag31
ag32
ag33
ag34
ag35
ag36
ag37
ag38
asg39
S'clim'
p155
sg41
g133
sg42
S'2015-03-24 21:18:40'
p156
sg44
S'Climate Scenarioac4570'
p157
sg46
g47
sg48
I4326
sg49
g50
sg51
g52
sg53
S'ac4570'
p158
ssS'Scenariobf010-ac4550'
p159
(dp160
g4
(lp161
S'6333'
p162
aS'6339'
p163
aS'6329'
p164
aS'6343'
p165
aS'6335'
p166
aS'6326'
p167
aS'6334'
p168
aS'6332'
p169
aS'6328'
p170
aS'6342'
p171
aS'6331'
p172
aS'6330'
p173
aS'6340'
p174
aS'6341'
p175
aS'6327'
p176
aS'6344'
p177
aS'6337'
p178
aS'6336'
p179
aS'6338'
p180
ag25
ag26
ag27
ag28
ag29
ag30
ag31
ag32
ag33
ag34
ag35
ag36
ag37
ag38
asg39
S'clim'
p181
sg41
g159
sg42
S'2015-03-24 21:18:40'
p182
sg44
S'Climate Scenarioac4550'
p183
sg46
g47
sg48
I4326
sg49
g50
sg51
g52
sg53
S'ac4550'
p184
ssS'Scenariobf010-he6050'
p185
(dp186
g4
(lp187
S'6252'
p188
aS'6246'
p189
aS'6258'
p190
aS'6248'
p191
aS'6262'
p192
aS'6250'
p193
aS'6251'
p194
aS'6245'
p195
aS'6253'
p196
aS'6254'
p197
aS'6247'
p198
aS'6261'
p199
aS'6257'
p200
aS'6249'
p201
aS'6259'
p202
aS'6260'
p203
aS'6256'
p204
aS'6255'
p205
aS'6263'
p206
ag25
ag26
ag27
ag28
ag29
ag30
ag31
ag32
ag33
ag34
ag35
ag36
ag37
ag38
asg39
S'clim'
p207
sg41
g185
sg42
S'2015-03-24 21:18:40'
p208
sg44
S'Climate Scenariohe6050'
p209
sg46
g47
sg48
I4326
sg49
g50
sg51
g52
sg53
S'he6050'
p210
ssS'Scenariobf010-gd4570'
p211
(dp212
g4
(lp213
S'6309'
p214
aS'6306'
p215
aS'6305'
p216
aS'6319'
p217
aS'6311'
p218
aS'6318'
p219
aS'6302'
p220
aS'6310'
p221
aS'6308'
p222
aS'6304'
p223
aS'6313'
p224
aS'6307'
p225
aS'6315'
p226
aS'6316'
p227
aS'6317'
p228
aS'6303'
p229
aS'6320'
p230
aS'6312'
p231
aS'6314'
p232
ag25
ag26
ag27
ag28
ag29
ag30
ag31
ag32
ag33
ag34
ag35
ag36
ag37
ag38
asg39
S'clim'
p233
sg41
g211
sg42
S'2015-03-24 21:18:40'
p234
sg44
S'Climate Scenariogd4570'
p235
sg46
g47
sg48
I4326
sg49
g50
sg51
g52
sg53
S'gd4570'
p236
ssS'Scenariobf010-he2670'
p237
(dp238
g4
(lp239
S'6154'
p240
aS'6151'
p241
aS'6155'
p242
aS'6164'
p243
aS'6156'
p244
aS'6147'
p245
aS'6150'
p246
aS'6153'
p247
aS'6149'
p248
aS'6163'
p249
aS'6152'
p250
aS'6160'
p251
aS'6161'
p252
aS'6162'
p253
aS'6148'
p254
aS'6165'
p255
aS'6158'
p256
aS'6157'
p257
aS'6159'
p258
ag25
ag26
ag27
ag28
ag29
ag30
ag31
ag32
ag33
ag34
ag35
ag36
ag37
ag38
asg39
S'clim'
p259
sg41
g237
sg42
S'2015-03-24 21:18:40'
p260
sg44
S'Climate Scenariohe2670'
p261
sg46
g47
sg48
I4326
sg49
g50
sg51
g52
sg53
S'he2670'
p262
ssS'Scenariobf010-he6070'
p263
(dp264
g4
(lp265
S'6356'
p266
aS'6369'
p267
aS'6359'
p268
aS'6373'
p269
aS'6365'
p270
aS'6363'
p271
aS'6364'
p272
aS'6362'
p273
aS'6358'
p274
aS'6372'
p275
aS'6361'
p276
aS'6360'
p277
aS'6370'
p278
aS'6371'
p279
aS'6357'
p280
aS'6374'
p281
aS'6367'
p282
aS'6366'
p283
aS'6368'
p284
ag25
ag26
ag27
ag28
ag29
ag30
ag31
ag32
ag33
ag34
ag35
ag36
ag37
ag38
asg39
S'clim'
p285
sg41
g263
sg42
S'2015-03-24 21:18:40'
p286
sg44
S'Climate Scenariohe6070'
p287
sg46
g47
sg48
I4326
sg49
g50
sg51
g52
sg53
S'he6070'
p288
ssS'Scenariobf010-he8570'
p289
(dp290
g4
(lp291
S'6207'
p292
aS'6208'
p293
aS'6220'
p294
aS'6210'
p295
aS'6224'
p296
aS'6216'
p297
aS'6214'
p298
aS'6215'
p299
aS'6213'
p300
aS'6209'
p301
aS'6223'
p302
aS'6212'
p303
aS'6211'
p304
aS'6221'
p305
aS'6222'
p306
aS'6218'
p307
aS'6225'
p308
aS'6217'
p309
aS'6219'
p310
ag25
ag26
ag27
ag28
ag29
ag30
ag31
ag32
ag33
ag34
ag35
ag36
ag37
ag38
asg39
S'clim'
p311
sg41
g289
sg42
S'2015-03-24 21:18:40'
p312
sg44
S'Climate Scenariohe8570'
p313
sg46
g47
sg48
I4326
sg49
g50
sg51
g52
sg53
S'he8570'
p314
ssS'Scenariobf010-current'
p315
(dp316
g4
(lp317
S'6264'
p318
aS'6268'
p319
aS'6272'
p320
aS'6281'
p321
aS'6273'
p322
aS'6280'
p323
aS'6271'
p324
aS'6267'
p325
aS'6270'
p326
aS'6266'
p327
aS'6275'
p328
aS'6269'
p329
aS'6277'
p330
aS'6278'
p331
aS'6279'
p332
aS'6265'
p333
aS'6282'
p334
aS'6274'
p335
aS'6276'
p336
ag25
ag26
ag27
ag28
ag29
ag30
ag31
ag32
ag33
ag34
ag35
ag36
ag37
ag38
asg39
S'clim'
p337
sg41
g315
sg42
S'2015-03-24 21:18:40'
p338
sg44
S'Climate Scenariocurrent'
p339
sg46
g47
sg48
I4326
sg49
g50
sg51
g52
sg53
S'current'
p340
ssS'Scenariobf010-gd4550'
p341
(dp342
g4
(lp343
S'6188'
p344
aS'6189'
p345
aS'6192'
p346
aS'6196'
p347
aS'6205'
p348
aS'6197'
p349
aS'6195'
p350
aS'6191'
p351
aS'6194'
p352
aS'6190'
p353
aS'6204'
p354
aS'6193'
p355
aS'6201'
p356
aS'6202'
p357
aS'6203'
p358
aS'6199'
p359
aS'6206'
p360
aS'6198'
p361
aS'6200'
p362
ag25
ag26
ag27
ag28
ag29
ag30
ag31
ag32
ag33
ag34
ag35
ag36
ag37
ag38
asg39
S'clim'
p363
sg41
g341
sg42
S'2015-03-24 21:18:40'
p364
sg44
S'Climate Scenariogd4550'
p365
sg46
g47
sg48
I4326
sg49
g50
sg51
g52
sg53
S'gd4550'
p366
ssS'Scenariobf010-he8550'
p367
(dp368
g4
(lp369
S'6176'
p370
aS'6182'
p371
aS'6172'
p372
aS'6186'
p373
aS'6175'
p374
aS'6185'
p375
aS'6169'
p376
aS'6177'
p377
aS'6178'
p378
aS'6171'
p379
aS'6180'
p380
aS'6174'
p381
aS'6173'
p382
aS'6183'
p383
aS'6184'
p384
aS'6170'
p385
aS'6187'
p386
aS'6179'
p387
aS'6181'
p388
ag25
ag26
ag27
ag28
ag29
ag30
ag31
ag32
ag33
ag34
ag35
ag36
ag37
ag38
asg39
S'clim'
p389
sg41
g367
sg42
S'2015-03-24 21:18:40'
p390
sg44
S'Climate Scenariohe8550'
p391
sg46
g47
sg48
I4326
sg49
g50
sg51
g52
sg53
S'he8550'
p392
ssS'Scenariobf010-hhe4570'
p393
(dp394
g4
(lp395
S'6605'
p396
aS'6599'
p397
aS'6611'
p398
aS'6601'
p399
aS'6607'
p400
aS'6598'
p401
aS'6606'
p402
aS'6604'
p403
aS'6600'
p404
aS'6614'
p405
aS'6603'
p406
aS'6602'
p407
aS'6612'
p408
aS'6613'
p409
aS'6609'
p410
aS'6608'
p411
aS'6616'
p412
aS'6615'
p413
aS'6610'
p414
ag25
ag26
ag27
ag28
ag29
ag30
ag31
ag32
ag33
ag34
ag35
ag36
ag37
ag38
asg39
S'clim'
p415
sg41
g393
sg42
S'2015-03-24 21:18:40'
p416
sg44
S'Climate Scenariohhe4570'
p417
sg46
g47
sg48
I4326
sg49
g50
sg51
g52
sg53
S'hhe4570'
p418
ss.